 test_nocrash_m

 Timestamp is 6a1ee4b5 (Tue Jun  2 20:12:05 2026)

 Preferred load address is 0000000140000000

 Start         Length     Name                   Class
 0001:00000000 0000004dH .text                   CODE
 0001:00000050 0000e152H .text$mn                CODE
 0001:0000e1b0 00000086H .text$mn$00             CODE
 0001:0000e240 00000c40H .text$mn$21             CODE
 0001:0000ee80 00000426H .text$x                 CODE
 0002:00000000 00005840H .rdata                  DATA
 0002:00005840 0000015cH .rdata$00               DATA
 0002:000059a0 00000028H .rdata$T                DATA
 0002:000059c8 0000016cH .rdata$r                DATA
 0002:00008a80 00000038H .00cfg                  DATA
 0002:00008ab8 00000008H .CRT$XCA                DATA
 0002:00008ac0 00000008H .CRT$XCAA               DATA
 0002:00008ac8 00000008H .CRT$XCZ                DATA
 0002:00008ad0 00000008H .CRT$XIA                DATA
 0002:00008ad8 00000008H .CRT$XIAA               DATA
 0002:00008ae0 00000008H .CRT$XIAC               DATA
 0002:00008ae8 00000020H .CRT$XIC                DATA
 0002:00008b08 00000008H .CRT$XIZ                DATA
 0002:00008b10 00000008H .CRT$XLA                DATA
 0002:00008b18 00000008H .CRT$XLZ                DATA
 0002:00008b20 00000008H .CRT$XPA                DATA
 0002:00008b28 00000010H .CRT$XPX                DATA
 0002:00008b38 00000008H .CRT$XPXA               DATA
 0002:00008b40 00000008H .CRT$XPZ                DATA
 0002:00008b48 00000008H .CRT$XTA                DATA
 0002:00008b50 00000008H .CRT$XTZ                DATA
 0002:000095c8 00000008H .rtc$IAA                DATA
 0002:000095d0 00000008H .rtc$IZZ                DATA
 0002:000095d8 00000008H .rtc$TAA                DATA
 0002:000095e0 00000008H .rtc$TZZ                DATA
 0002:000095e8 00000e94H .xdata                  DATA
 0002:0000a480 00000084H .xdata$x                DATA
 0003:00000000 00000ab0H .data                   DATA
 0003:00000ab0 00000050H .data$r                 DATA
 0003:00000b00 00000020H .data$rs                DATA
 0003:00000b20 0000993cH .bss                    DATA
 0004:00000000 00001014H .pdata                  DATA
 0005:00000000 00000100H .fptable                DATA
 0006:00000000 00000001H .tls                    DATA
 0006:00000008 00000008H .tls$                   DATA
 0006:00000010 00000001H .tls$ZZZ                DATA
 0007:00000000 000001f4H _RDATA                  DATA

  Address         Publics by Value              Rva+Base               Lib:Object

 0000:00000000       __AbsoluteZero             0000000000000000     <absolute>
 0000:00000000       __guard_fids_table         0000000000000000     <absolute>
 0000:00000000       __guard_fids_count         0000000000000000     <absolute>
 0000:00000000       __guard_flags              0000000000000000     <absolute>
 0000:00000000       __guard_iat_table          0000000000000000     <absolute>
 0000:00000000       __guard_iat_count          0000000000000000     <absolute>
 0000:00000000       __guard_longjmp_table      0000000000000000     <absolute>
 0000:00000000       __guard_longjmp_count      0000000000000000     <absolute>
 0000:00000000       __enclave_config           0000000000000000     <absolute>
 0000:00000000       __guard_eh_cont_table      0000000000000000     <absolute>
 0000:00000000       __guard_eh_cont_count      0000000000000000     <absolute>
 0000:00000000       __AbsoluteZero             0000000000000000     <absolute>
 0000:00000002       @vol.md                    0000000000000002     <absolute>
 0000:00000002       @vol.md                    0000000000000002     <absolute>
 0000:00000002       @vol.md                    0000000000000002     <absolute>
 0000:00000002       @vol.md                    0000000000000002     <absolute>
 0000:00000002       @vol.md                    0000000000000002     <absolute>
 0000:00000002       @vol.md                    0000000000000002     <absolute>
 0000:00000002       @vol.md                    0000000000000002     <absolute>
 0000:00000002       @vol.md                    0000000000000002     <absolute>
 0000:00000002       @vol.md                    0000000000000002     <absolute>
 0000:00000002       @vol.md                    0000000000000002     <absolute>
 0000:00000002       @vol.md                    0000000000000002     <absolute>
 0000:00000002       @vol.md                    0000000000000002     <absolute>
 0000:00000002       @vol.md                    0000000000000002     <absolute>
 0000:00000002       @vol.md                    0000000000000002     <absolute>
 0000:00000002       @vol.md                    0000000000000002     <absolute>
 0000:00000002       @vol.md                    0000000000000002     <absolute>
 0000:00000002       @vol.md                    0000000000000002     <absolute>
 0000:00000002       @vol.md                    0000000000000002     <absolute>
 0000:00000002       @vol.md                    0000000000000002     <absolute>
 0000:00000002       @vol.md                    0000000000000002     <absolute>
 0000:00000002       @vol.md                    0000000000000002     <absolute>
 0000:00000002       @vol.md                    0000000000000002     <absolute>
 0000:00000002       @vol.md                    0000000000000002     <absolute>
 0000:00000002       @vol.md                    0000000000000002     <absolute>
 0000:00000002       @vol.md                    0000000000000002     <absolute>
 0000:00000002       @vol.md                    0000000000000002     <absolute>
 0000:00000002       @vol.md                    0000000000000002     <absolute>
 0000:00000002       @vol.md                    0000000000000002     <absolute>
 0000:00000002       @vol.md                    0000000000000002     <absolute>
 0000:00000002       @vol.md                    0000000000000002     <absolute>
 0000:00000002       @vol.md                    0000000000000002     <absolute>
 0000:00000002       @vol.md                    0000000000000002     <absolute>
 0000:00000002       @vol.md                    0000000000000002     <absolute>
 0000:00000002       @vol.md                    0000000000000002     <absolute>
 0000:00000002       @vol.md                    0000000000000002     <absolute>
 0000:00000002       @vol.md                    0000000000000002     <absolute>
 0000:00000002       @vol.md                    0000000000000002     <absolute>
 0000:00000002       @vol.md                    0000000000000002     <absolute>
 0000:00000002       @vol.md                    0000000000000002     <absolute>
 0000:00000002       @vol.md                    0000000000000002     <absolute>
 0000:00000002       @vol.md                    0000000000000002     <absolute>
 0000:00000002       @vol.md                    0000000000000002     <absolute>
 0000:00000002       @vol.md                    0000000000000002     <absolute>
 0000:00000002       @vol.md                    0000000000000002     <absolute>
 0000:00000002       @vol.md                    0000000000000002     <absolute>
 0000:00000002       @vol.md                    0000000000000002     <absolute>
 0000:00000002       @vol.md                    0000000000000002     <absolute>
 0000:00000002       @vol.md                    0000000000000002     <absolute>
 0000:00000002       @vol.md                    0000000000000002     <absolute>
 0000:00000002       @vol.md                    0000000000000002     <absolute>
 0000:00000002       @vol.md                    0000000000000002     <absolute>
 0000:00000002       @vol.md                    0000000000000002     <absolute>
 0000:00000002       @vol.md                    0000000000000002     <absolute>
 0000:00000002       @vol.md                    0000000000000002     <absolute>
 0000:00000002       @vol.md                    0000000000000002     <absolute>
 0000:00000002       @vol.md                    0000000000000002     <absolute>
 0000:00000002       @vol.md                    0000000000000002     <absolute>
 0000:00000002       @vol.md                    0000000000000002     <absolute>
 0000:00000002       @vol.md                    0000000000000002     <absolute>
 0000:00000002       @vol.md                    0000000000000002     <absolute>
 0000:00000002       @vol.md                    0000000000000002     <absolute>
 0000:00000002       @vol.md                    0000000000000002     <absolute>
 0000:00000002       @vol.md                    0000000000000002     <absolute>
 0000:00000002       @vol.md                    0000000000000002     <absolute>
 0000:00000002       @vol.md                    0000000000000002     <absolute>
 0000:00000002       @vol.md                    0000000000000002     <absolute>
 0000:00000002       @vol.md                    0000000000000002     <absolute>
 0000:00000002       @vol.md                    0000000000000002     <absolute>
 0000:00000002       @vol.md                    0000000000000002     <absolute>
 0000:00000002       @vol.md                    0000000000000002     <absolute>
 0000:00000002       @vol.md                    0000000000000002     <absolute>
 0000:00000002       @vol.md                    0000000000000002     <absolute>
 0000:00000002       @vol.md                    0000000000000002     <absolute>
 0000:00000002       @vol.md                    0000000000000002     <absolute>
 0000:00000002       @vol.md                    0000000000000002     <absolute>
 0000:00000002       @vol.md                    0000000000000002     <absolute>
 0000:00000002       @vol.md                    0000000000000002     <absolute>
 0000:00000002       @vol.md                    0000000000000002     <absolute>
 0000:00000002       @vol.md                    0000000000000002     <absolute>
 0000:00000002       @vol.md                    0000000000000002     <absolute>
 0000:00000002       @vol.md                    0000000000000002     <absolute>
 0000:00000002       @vol.md                    0000000000000002     <absolute>
 0000:00000002       @vol.md                    0000000000000002     <absolute>
 0000:00000002       @vol.md                    0000000000000002     <absolute>
 0000:00000002       @vol.md                    0000000000000002     <absolute>
 0000:00000002       @vol.md                    0000000000000002     <absolute>
 0000:00000002       @vol.md                    0000000000000002     <absolute>
 0000:00000002       @vol.md                    0000000000000002     <absolute>
 0000:00000002       @vol.md                    0000000000000002     <absolute>
 0000:00000002       @vol.md                    0000000000000002     <absolute>
 0000:00000002       @vol.md                    0000000000000002     <absolute>
 0000:00000002       @vol.md                    0000000000000002     <absolute>
 0000:00000002       @vol.md                    0000000000000002     <absolute>
 0000:00000002       @vol.md                    0000000000000002     <absolute>
 0000:00000002       @vol.md                    0000000000000002     <absolute>
 0000:00000002       @vol.md                    0000000000000002     <absolute>
 0000:00000002       @vol.md                    0000000000000002     <absolute>
 0000:00000002       @vol.md                    0000000000000002     <absolute>
 0000:00000002       @vol.md                    0000000000000002     <absolute>
 0000:00000002       @vol.md                    0000000000000002     <absolute>
 0000:00000002       @vol.md                    0000000000000002     <absolute>
 0000:00000002       @vol.md                    0000000000000002     <absolute>
 0000:00000002       @vol.md                    0000000000000002     <absolute>
 0000:00000002       @vol.md                    0000000000000002     <absolute>
 0000:00000002       @vol.md                    0000000000000002     <absolute>
 0000:00000002       @vol.md                    0000000000000002     <absolute>
 0000:00000002       @vol.md                    0000000000000002     <absolute>
 0000:00000002       @vol.md                    0000000000000002     <absolute>
 0000:00000002       @vol.md                    0000000000000002     <absolute>
 0000:00000002       @vol.md                    0000000000000002     <absolute>
 0000:00000002       @vol.md                    0000000000000002     <absolute>
 0000:00000002       @vol.md                    0000000000000002     <absolute>
 0000:00000002       @vol.md                    0000000000000002     <absolute>
 0000:00000002       @vol.md                    0000000000000002     <absolute>
 0000:00000002       @vol.md                    0000000000000002     <absolute>
 0000:00000002       @vol.md                    0000000000000002     <absolute>
 0000:00000002       @vol.md                    0000000000000002     <absolute>
 0000:00000002       @vol.md                    0000000000000002     <absolute>
 0000:00000002       @vol.md                    0000000000000002     <absolute>
 0000:00000002       @vol.md                    0000000000000002     <absolute>
 0000:00000002       @vol.md                    0000000000000002     <absolute>
 0000:00000002       @vol.md                    0000000000000002     <absolute>
 0000:00000002       @vol.md                    0000000000000002     <absolute>
 0000:00000002       @vol.md                    0000000000000002     <absolute>
 0000:00000002       @vol.md                    0000000000000002     <absolute>
 0000:00000002       @vol.md                    0000000000000002     <absolute>
 0000:00000002       @vol.md                    0000000000000002     <absolute>
 0000:00000002       @vol.md                    0000000000000002     <absolute>
 0000:00000002       @vol.md                    0000000000000002     <absolute>
 0000:00000002       @vol.md                    0000000000000002     <absolute>
 0000:00000002       @vol.md                    0000000000000002     <absolute>
 0000:00000002       @vol.md                    0000000000000002     <absolute>
 0000:00000002       @vol.md                    0000000000000002     <absolute>
 0000:00000002       @vol.md                    0000000000000002     <absolute>
 0000:00000002       @vol.md                    0000000000000002     <absolute>
 0000:00000002       @vol.md                    0000000000000002     <absolute>
 0000:00000002       @vol.md                    0000000000000002     <absolute>
 0000:00000002       @vol.md                    0000000000000002     <absolute>
 0000:00000002       @vol.md                    0000000000000002     <absolute>
 0000:00000002       @vol.md                    0000000000000002     <absolute>
 0000:00000002       @vol.md                    0000000000000002     <absolute>
 0000:00000002       @vol.md                    0000000000000002     <absolute>
 0000:00000002       @vol.md                    0000000000000002     <absolute>
 0000:00000002       @vol.md                    0000000000000002     <absolute>
 0000:00000002       @vol.md                    0000000000000002     <absolute>
 0000:00000002       @vol.md                    0000000000000002     <absolute>
 0000:00000002       @vol.md                    0000000000000002     <absolute>
 0000:00000002       @vol.md                    0000000000000002     <absolute>
 0000:00000002       @vol.md                    0000000000000002     <absolute>
 0000:00000002       @vol.md                    0000000000000002     <absolute>
 0000:00000002       @vol.md                    0000000000000002     <absolute>
 0000:00000002       @vol.md                    0000000000000002     <absolute>
 0000:00000002       @vol.md                    0000000000000002     <absolute>
 0000:00000002       @vol.md                    0000000000000002     <absolute>
 0000:00000002       @vol.md                    0000000000000002     <absolute>
 0000:00000002       @vol.md                    0000000000000002     <absolute>
 0000:00000003       @vol.md                    0000000000000003     <absolute>
 0000:00000003       @vol.md                    0000000000000003     <absolute>
 0000:00000003       @vol.md                    0000000000000003     <absolute>
 0000:00000003       @vol.md                    0000000000000003     <absolute>
 0000:00000003       @vol.md                    0000000000000003     <absolute>
 0000:00000003       @vol.md                    0000000000000003     <absolute>
 0000:00000003       @vol.md                    0000000000000003     <absolute>
 0000:00000003       @vol.md                    0000000000000003     <absolute>
 0000:00000003       @vol.md                    0000000000000003     <absolute>
 0000:00000003       @vol.md                    0000000000000003     <absolute>
 0000:00000003       @vol.md                    0000000000000003     <absolute>
 0000:00000003       @vol.md                    0000000000000003     <absolute>
 0000:00000003       @vol.md                    0000000000000003     <absolute>
 0000:00000003       @vol.md                    0000000000000003     <absolute>
 0000:00000003       @vol.md                    0000000000000003     <absolute>
 0000:00000003       @vol.md                    0000000000000003     <absolute>
 0000:00000003       @vol.md                    0000000000000003     <absolute>
 0000:00000003       @vol.md                    0000000000000003     <absolute>
 0000:00000003       @vol.md                    0000000000000003     <absolute>
 0000:00000003       @vol.md                    0000000000000003     <absolute>
 0000:00000003       @vol.md                    0000000000000003     <absolute>
 0000:00000003       @vol.md                    0000000000000003     <absolute>
 0000:00000003       @vol.md                    0000000000000003     <absolute>
 0000:00000003       @vol.md                    0000000000000003     <absolute>
 0000:00000003       @vol.md                    0000000000000003     <absolute>
 0000:00000003       @vol.md                    0000000000000003     <absolute>
 0000:00000003       @vol.md                    0000000000000003     <absolute>
 0000:00000003       @vol.md                    0000000000000003     <absolute>
 0000:00000003       @vol.md                    0000000000000003     <absolute>
 0000:00000003       @vol.md                    0000000000000003     <absolute>
 0000:00000003       @vol.md                    0000000000000003     <absolute>
 0000:00000003       @vol.md                    0000000000000003     <absolute>
 0000:00000003       @vol.md                    0000000000000003     <absolute>
 0000:00000003       @vol.md                    0000000000000003     <absolute>
 0000:00000003       @vol.md                    0000000000000003     <absolute>
 0000:00000003       @vol.md                    0000000000000003     <absolute>
 0000:00000003       @vol.md                    0000000000000003     <absolute>
 0000:00000003       @vol.md                    0000000000000003     <absolute>
 0000:00000003       @vol.md                    0000000000000003     <absolute>
 0000:00000003       @vol.md                    0000000000000003     <absolute>
 0000:00000003       @vol.md                    0000000000000003     <absolute>
 0000:00000003       @vol.md                    0000000000000003     <absolute>
 0000:00000003       @vol.md                    0000000000000003     <absolute>
 0000:00000003       @vol.md                    0000000000000003     <absolute>
 0000:00000003       @vol.md                    0000000000000003     <absolute>
 0000:00000003       @vol.md                    0000000000000003     <absolute>
 0000:00000003       @vol.md                    0000000000000003     <absolute>
 0000:00000003       @vol.md                    0000000000000003     <absolute>
 0000:00000003       @vol.md                    0000000000000003     <absolute>
 0000:00000003       @vol.md                    0000000000000003     <absolute>
 0000:00000003       @vol.md                    0000000000000003     <absolute>
 0000:00000003       @vol.md                    0000000000000003     <absolute>
 0000:00000003       @vol.md                    0000000000000003     <absolute>
 0000:00000003       @vol.md                    0000000000000003     <absolute>
 0000:00000003       @vol.md                    0000000000000003     <absolute>
 0000:00000003       @vol.md                    0000000000000003     <absolute>
 0000:00000003       @vol.md                    0000000000000003     <absolute>
 0000:00000003       @vol.md                    0000000000000003     <absolute>
 0000:00000003       @vol.md                    0000000000000003     <absolute>
 0000:00000003       @vol.md                    0000000000000003     <absolute>
 0000:00000003       @vol.md                    0000000000000003     <absolute>
 0000:00000003       @vol.md                    0000000000000003     <absolute>
 0000:00000003       @vol.md                    0000000000000003     <absolute>
 0000:00000003       @vol.md                    0000000000000003     <absolute>
 0000:00000003       @vol.md                    0000000000000003     <absolute>
 0000:00000003       @vol.md                    0000000000000003     <absolute>
 0000:00000003       @vol.md                    0000000000000003     <absolute>
 0000:00000003       @vol.md                    0000000000000003     <absolute>
 0000:00000003       @vol.md                    0000000000000003     <absolute>
 0000:00000000       __ImageBase                0000000140000000     <linker-defined>
 0001:00000000       __entry                    0000000140001000     test_nocrash.obj
 0001:00000010       main_user                  0000000140001010     test_nocrash.obj
 0001:00000030       main                       0000000140001030     test_nocrash.obj
 0001:00000050       aurora_print_str           0000000140001050     aurora_runtime:io.obj
 0001:000000e0       aurora_panic               00000001400010e0     aurora_runtime:io.obj
 0001:00000190       aurora_str_from_cstr       0000000140001190     aurora_runtime:aurora_str.obj
 0001:00000250       __local_stdio_printf_options 0000000140001250     aurora_runtime:memory.obj
 0001:00000260       ??0exception@std@@QEAA@AEBV01@@Z 0000000140001260     aurora_runtime:memory.obj
 0001:000002a0       ?what@exception@std@@UEBAPEBDXZ 00000001400012a0     aurora_runtime:memory.obj
 0001:000002c0       ??_Gexception@std@@UEAAPEAXI@Z 00000001400012c0     aurora_runtime:memory.obj
 0001:000002c0       ??_Gexception@std@@UEAAPEAXI@Z 00000001400012c0     aurora_runtime:memory.obj
 0001:000002c0       ??_Gbad_exception@std@@UEAAPEAXI@Z 00000001400012c0     libvcruntime:frame.obj
 0001:000002c0       ??_Gbad_exception@std@@UEAAPEAXI@Z 00000001400012c0     libvcruntime:frame.obj
 0001:00000304       __GSHandlerCheckCommon     0000000140001304     libcmt:gshandler.obj
 0001:00000364       __GSHandlerCheck           0000000140001364     libcmt:gshandler.obj
 0001:000003a0       __security_check_cookie    00000001400013a0     libcmt:amdsecgs.obj
 0001:000003c0       ??3@YAXPEAX_K@Z            00000001400013c0     libcmt:delete_scalar_size.obj
 0001:000003c8       __std_exception_copy       00000001400013c8     libvcruntime:std_exception.obj
 0001:00000448       __std_exception_destroy    0000000140001448     libvcruntime:std_exception.obj
 0001:00000470       _CxxThrowException         0000000140001470     libvcruntime:throw.obj
 0001:00000518       ??_Gtype_info@@UEAAPEAXI@Z 0000000140001518     libcmt:std_type_info_static.obj
 0001:00000518       ??_Gtype_info@@UEAAPEAXI@Z 0000000140001518     libcmt:std_type_info_static.obj
 0001:00000544       __report_gsfailure         0000000140001544     libcmt:gs_report.obj
 0001:0000068c       __raise_securityfailure    000000014000168c     libcmt:gs_report.obj
 0001:000006c0       __isa_available_init       00000001400016c0     libcmt:cpu_disp.obj
 0001:00000958       ??3@YAXPEAX@Z              0000000140001958     libcmt:delete_scalar.obj
 0001:00000960       _guard_check_icall_nop     0000000140001960     libvcruntime:jbcxrval.obj
 0001:00000960       _initialize_invalid_parameter_handler 0000000140001960     libcmt:invalid_parameter_handler.obj
 0001:00000960       _initialize_denormal_control 0000000140001960     libcmt:denormal_control.obj
 0001:00000964       __except_validate_context_record 0000000140001964     libvcruntime:jbcxrval.obj
 0001:000009b0       memcpy_avx_ermsb_Intel     00000001400019b0     libvcruntime:memcpy_avx_ermsb_aligned.obj
 0001:00000de0       memcpy_avx_ermsb_amd       0000000140001de0     libvcruntime:memcpy_avx_ermsb_aligned_amd.obj
 0001:00001210       memcpy_sse2_ermsb_Intel    0000000140002210     libvcruntime:memcpy_sse2_ermsb_aligned.obj
 0001:000014c0       memcpy_sse2_ermsb_amd      00000001400024c0     libvcruntime:memcpy_sse2_ermsb_aligned_amd.obj
 0001:00001770       memcpy_repmovs_Intel       0000000140002770     libvcruntime:memcpy_repmovs.obj
 0001:00001790       memcpy_CopyDown_Intel      0000000140002790     libvcruntime:memcpy_CopyDown.obj
 0001:00001880       memcpy_repmovs_amd         0000000140002880     libvcruntime:memcpy_repmovs_amd.obj
 0001:000018a0       memcpy_CopyDown_amd        00000001400028a0     libvcruntime:memcpy_CopyDown_amd.obj
 0001:00001980       ?CatchTryBlock@__FrameHandler3@@SAPEBU_s_TryBlockMapEntry@@PEBU_s_FuncInfo@@H@Z 0000000140002980     libvcruntime:risctrnsctrl.obj
 0001:000019e4       ?ExecutionInCatch@__FrameHandler3@@SA_NPEAU_xDISPATCHER_CONTEXT@@PEBU_s_FuncInfo@@@Z 00000001400029e4     libvcruntime:risctrnsctrl.obj
 0001:00001a10       ?FrameUnwindToEmptyState@__FrameHandler3@@SAXPEA_KPEAU_xDISPATCHER_CONTEXT@@PEBU_s_FuncInfo@@@Z 0000000140002a10     libvcruntime:risctrnsctrl.obj
 0001:00001a74       ?GetEstablisherFrame@__FrameHandler3@@SAPEA_KPEA_KPEAU_xDISPATCHER_CONTEXT@@PEBU_s_FuncInfo@@0@Z 0000000140002a74     libvcruntime:risctrnsctrl.obj
 0001:00001b5c       ?UnwindNestedFrames@__FrameHandler3@@SAXPEA_KPEAUEHExceptionRecord@@PEAU_CONTEXT@@0PEAXPEBU_s_FuncInfo@@HHPEBU_s_HandlerType@@PEAU_xDISPATCHER_CONTEXT@@E@Z 0000000140002b5c     libvcruntime:risctrnsctrl.obj
 0001:00001c60       ?GetRangeOfTrysToCheck@__FrameHandler3@@SA?AU?$pair@Viterator@TryBlockMap@__FrameHandler3@@V123@@std@@AEAVTryBlockMap@1@HPEAU_xDISPATCHER_CONTEXT@@PEBU_s_FuncInfo@@H@Z 0000000140002c60     libvcruntime:risctrnsctrl.obj
 0001:00001d98       _GetImageBase              0000000140002d98     libvcruntime:risctrnsctrl.obj
 0001:00001dac       _SetImageBase              0000000140002dac     libvcruntime:risctrnsctrl.obj
 0001:00001dc4       _GetThrowImageBase         0000000140002dc4     libvcruntime:risctrnsctrl.obj
 0001:00001dd8       _SetThrowImageBase         0000000140002dd8     libvcruntime:risctrnsctrl.obj
 0001:00001df0       _CreateFrameInfo           0000000140002df0     libvcruntime:risctrnsctrl.obj
 0001:00001e2c       _FindAndUnlinkFrame        0000000140002e2c     libvcruntime:risctrnsctrl.obj
 0001:00001e80       __CxxFrameHandler3         0000000140002e80     libvcruntime:risctrnsctrl.obj
 0001:00001f08       ??$_CallSETranslator@V__FrameHandler3@@@@YAHPEAUEHExceptionRecord@@PEA_KPEAU_CONTEXT@@PEAU_xDISPATCHER_CONTEXT@@PEBU_s_FuncInfo@@K1H@Z 0000000140002f08     libvcruntime:risctrnsctrl.obj
 0001:00001f5c       __vcrt_initialize_ptd      0000000140002f5c     libvcruntime:per_thread_data.obj
 0001:00001fa4       __vcrt_uninitialize_ptd    0000000140002fa4     libvcruntime:per_thread_data.obj
 0001:00001fcc       __vcrt_getptd              0000000140002fcc     libvcruntime:per_thread_data.obj
 0001:00001fe8       __vcrt_getptd_noexit       0000000140002fe8     libvcruntime:per_thread_data.obj
 0001:000020b4       __vcrt_freefls             00000001400030b4     libvcruntime:per_thread_data.obj
 0001:000020d4       ?StateFromControlPc@__FrameHandler3@@SAHPEBU_s_FuncInfo@@PEAU_xDISPATCHER_CONTEXT@@@Z 00000001400030d4     libvcruntime:ehstate.obj
 0001:000020dc       ?StateFromIp@__FrameHandler3@@SAHPEBU_s_FuncInfo@@PEAU_xDISPATCHER_CONTEXT@@_K@Z 00000001400030dc     libvcruntime:ehstate.obj
 0001:00002144       ?GetCurrentState@__FrameHandler3@@SAHPEA_KPEAU_xDISPATCHER_CONTEXT@@PEBU_s_FuncInfo@@@Z 0000000140003144     libvcruntime:ehstate.obj
 0001:0000216c       ?SetState@__FrameHandler3@@SAXPEA_KPEBU_s_FuncInfo@@H@Z 000000014000316c     libvcruntime:ehstate.obj
 0001:00002178       ?SetUnwindTryBlock@__FrameHandler3@@SAXPEA_KPEAU_xDISPATCHER_CONTEXT@@PEBU_s_FuncInfo@@H@Z 0000000140003178     libvcruntime:ehstate.obj
 0001:000021b4       ?GetUnwindTryBlock@__FrameHandler3@@SAHPEA_KPEAU_xDISPATCHER_CONTEXT@@PEBU_s_FuncInfo@@@Z 00000001400031b4     libvcruntime:ehstate.obj
 0001:000021e0       ?FrameUnwindToState@__FrameHandler3@@SAXPEA_KPEAU_xDISPATCHER_CONTEXT@@PEBU_s_FuncInfo@@H@Z 00000001400031e0     libvcruntime:frame.obj
 0001:0000236c       ?GetHandlerSearchState@__FrameHandler3@@SAHPEA_KPEAU_xDISPATCHER_CONTEXT@@PEBU_s_FuncInfo@@@Z 000000014000336c     libvcruntime:frame.obj
 0001:00002404       ?CxxCallCatchBlock@__FrameHandler3@@SAPEAXPEAU_EXCEPTION_RECORD@@@Z 0000000140003404     libvcruntime:frame.obj
 0001:000025f0       ?_CallMemberFunction1@@YAXQEAX00@Z 00000001400035f0     libvcruntime:frame.obj
 0001:000025fc       ?_CallMemberFunction2@@YAXQEAX00H@Z 00000001400035fc     libvcruntime:frame.obj
 0001:0000260c       ??0bad_exception@std@@QEAA@XZ 000000014000360c     libvcruntime:frame.obj
 0001:00002630       ??1bad_exception@std@@UEAA@XZ 0000000140003630     libvcruntime:frame.obj
 0001:00002644       ??0bad_exception@std@@QEAA@AEBV01@@Z 0000000140003644     libvcruntime:frame.obj
 0001:00002888       ??$__InternalCxxFrameHandlerWrapper@V__FrameHandler3@@@@YA?AW4_EXCEPTION_DISPOSITION@@PEAUEHExceptionRecord@@PEA_KPEAU_CONTEXT@@PEAU_xDISPATCHER_CONTEXT@@PEBU_s_FuncInfo@@H1E@Z 0000000140003888     libvcruntime:frame.obj
 0001:00002890       ??$TypeMatchHelper@V__FrameHandler3@@@@YAHPEBU_s_HandlerType@@PEBU_s_CatchableType@@PEBU_s_ThrowInfo@@@Z 0000000140003890     libvcruntime:frame.obj
 0001:00002c64       ??$__InternalCxxFrameHandler@V__FrameHandler3@@@@YA?AW4_EXCEPTION_DISPOSITION@@PEAUEHExceptionRecord@@PEA_KPEAU_CONTEXT@@PEAU_xDISPATCHER_CONTEXT@@PEBU_s_FuncInfo@@H1E@Z 0000000140003c64     libvcruntime:frame.obj
 0001:000036c0       __C_specific_handler       00000001400046c0     libvcruntime:riscchandler.obj
 0001:000038d8       __vcrt_FlsAlloc            00000001400048d8     libvcruntime:winapi_downlevel.obj
 0001:00003920       __vcrt_FlsFree             0000000140004920     libvcruntime:winapi_downlevel.obj
 0001:00003968       __vcrt_FlsGetValue         0000000140004968     libvcruntime:winapi_downlevel.obj
 0001:000039b0       __vcrt_FlsSetValue         00000001400049b0     libvcruntime:winapi_downlevel.obj
 0001:00003a04       __vcrt_InitializeCriticalSectionEx 0000000140004a04     libvcruntime:winapi_downlevel.obj
 0001:00003c00       _CallSettingFrame          0000000140004c00     libvcruntime:handlers.obj
 0001:00003c40       __DestructExceptionObject  0000000140004c40     libvcruntime:ehhelpers.obj
 0001:00003cb4       __std_terminate            0000000140004cb4     libvcruntime:ehhelpers.obj
 0001:00003cc0       ?_CallMemberFunction0@@YAXQEAX0@Z 0000000140004cc0     libvcruntime:ehhelpers.obj
 0001:00003cc4       _IsExceptionObjectToBeDestroyed 0000000140004cc4     libvcruntime:ehhelpers.obj
 0001:00003cf4       __current_exception        0000000140004cf4     libvcruntime:ehhelpers.obj
 0001:00003d08       __current_exception_context 0000000140004d08     libvcruntime:ehhelpers.obj
 0001:00003d1c       __AdjustPointer            0000000140004d1c     libvcruntime:ehhelpers.obj
 0001:00003d40       __FrameUnwindFilter        0000000140004d40     libvcruntime:ehhelpers.obj
 0001:00003da8       __std_type_info_compare    0000000140004da8     libvcruntime:std_type_info.obj
 0001:00003dc0       _ValidateImageBase         0000000140004dc0     libcmt:pesect.obj
 0001:00003df0       _FindPESection             0000000140004df0     libcmt:pesect.obj
 0001:00003e40       _IsNonwritableInCurrentImage 0000000140004e40     libcmt:pesect.obj
 0001:00003ec0       _NLG_Notify                0000000140004ec0     libvcruntime:notify.obj
 0001:00003ee0       __NLG_Dispatch2            0000000140004ee0     libvcruntime:notify.obj
 0001:00003ef0       __NLG_Return2              0000000140004ef0     libvcruntime:notify.obj
 0001:00003ef4       __vcrt_initialize_locks    0000000140004ef4     libvcruntime:locks.obj
 0001:00003f3c       __vcrt_uninitialize_locks  0000000140004f3c     libvcruntime:locks.obj
 0001:000041e0       mainCRTStartup             00000001400051e0     libcmt:exe_main.obj
 0001:000041f4       atexit                     00000001400051f4     libcmt:utility.obj
 0001:0000420c       _onexit                    000000014000520c     libcmt:utility.obj
 0001:00004248       __scrt_is_nonwritable_in_current_image 0000000140005248     libcmt:utility.obj
 0001:000042e0       __scrt_acquire_startup_lock 00000001400052e0     libcmt:utility.obj
 0001:0000431c       __scrt_release_startup_lock 000000014000531c     libcmt:utility.obj
 0001:00004340       __scrt_initialize_crt      0000000140005340     libcmt:utility.obj
 0001:0000437c       __scrt_uninitialize_crt    000000014000537c     libcmt:utility.obj
 0001:000043a8       __scrt_initialize_onexit_tables 00000001400053a8     libcmt:utility.obj
 0001:00004434       __security_init_cookie     0000000140005434     libcmt:gs_support.obj
 0001:000044e4       _matherr                   00000001400054e4     libcmt:matherr.obj
 0001:000044e4       _get_startup_commit_mode   00000001400054e4     libcmt:commit_mode.obj
 0001:000044e4       _get_startup_new_mode      00000001400054e4     libcmt:new_mode.obj
 0001:000044e4       _get_startup_thread_locale_mode 00000001400054e4     libcmt:thread_locale.obj
 0001:000044e4       __scrt_initialize_winrt    00000001400054e4     libcmt:utility_desktop.obj
 0001:000044e4       __scrt_stub_for_initialize_mta 00000001400054e4     libcmt:utility_desktop.obj
 0001:000044e4       __scrt_stub_for_initialize_mta 00000001400054e4     libcmt:utility_desktop.obj
 0001:000044e8       _get_startup_argv_mode     00000001400054e8     libcmt:argv_mode.obj
 0001:000044f0       _get_startup_file_mode     00000001400054f0     libcmt:file_mode.obj
 0001:000044f8       ?__scrt_initialize_type_info@@YAXXZ 00000001400054f8     libcmt:tncleanup.obj
 0001:00004508       _should_initialize_environment 0000000140005508     libcmt:env_mode.obj
 0001:00004508       __acrt_uninitialize_command_line 0000000140005508     libucrt:argv_data.obj
 0001:0000450c       __scrt_initialize_default_local_stdio_options 000000014000550c     libcmt:default_local_stdio_options.obj
 0001:00004528       __local_stdio_scanf_options 0000000140005528     libcmt:default_local_stdio_options.obj
 0001:00004530       __scrt_is_user_matherr_present 0000000140005530     libcmt:matherr_detection.obj
 0001:0000453c       __scrt_get_dyn_tls_init_callback 000000014000553c     libcmt:dyn_tls_init.obj
 0001:00004544       __scrt_get_dyn_tls_dtor_callback 0000000140005544     libcmt:dyn_tls_dtor.obj
 0001:0000454c       __crt_debugger_hook        000000014000554c     libcmt:utility_desktop.obj
 0001:00004558       __scrt_is_managed_app      0000000140005558     libcmt:utility_desktop.obj
 0001:000045ac       __scrt_initialize_mta      00000001400055ac     libcmt:utility_desktop.obj
 0001:000045b4       __scrt_set_unhandled_exception_filter 00000001400055b4     libcmt:utility_desktop.obj
 0001:000045c4       __scrt_fastfail            00000001400055c4     libcmt:utility_desktop.obj
 0001:00004710       __scrt_unhandled_exception_filter 0000000140005710     libcmt:utility_desktop.obj
 0001:00004774       _RTC_Initialize            0000000140005774     libcmt:initsect.obj
 0001:000047b0       _RTC_Terminate             00000001400057b0     libcmt:initsect.obj
 0001:000047ec       __vcrt_initialize          00000001400057ec     libvcruntime:initialization.obj
 0001:00004814       __vcrt_uninitialize        0000000140005814     libvcruntime:initialization.obj
 0001:00004830       __scrt_is_ucrt_dll_in_use  0000000140005830     libcmt:ucrt_detection.obj
 0001:00004968       __acrt_initialize          0000000140005968     libucrt:initialization.obj
 0001:0000497c       __acrt_uninitialize        000000014000597c     libucrt:initialization.obj
 0001:000049b4       _lock_file                 00000001400059b4     libucrt:_file.obj
 0001:000049c0       _unlock_file               00000001400059c0     libucrt:_file.obj
 0001:000049cc       __acrt_initialize_stdio    00000001400059cc     libucrt:_file.obj
 0001:00004aec       __acrt_uninitialize_stdio  0000000140005aec     libucrt:_file.obj
 0001:00004b48       __p___argc                 0000000140005b48     libucrt:argv_data.obj
 0001:00004b50       __p___argv                 0000000140005b50     libucrt:argv_data.obj
 0001:00004b58       __acrt_initialize_command_line 0000000140005b58     libucrt:argv_data.obj
 0001:00004b80       __p__commode               0000000140005b80     libucrt:ncommode.obj
 0001:00004b90       __setusermatherr           0000000140005b90     libucrt:matherr.obj
 0001:00004bc0       __acrt_initialize_user_matherr 0000000140005bc0     libucrt:matherr.obj
 0001:00004bd0       ?get_raw_ptd@__crt_cached_ptd_host@@QEAAPEAU__acrt_ptd@@XZ 0000000140005bd0     libucrt:output.obj
 0001:00004c40       ?update_locale_slow@__crt_cached_ptd_host@@AEAAXXZ 0000000140005c40     libucrt:output.obj
 0001:00004cb8       exit                       0000000140005cb8     libucrt:exit.obj
 0001:00004cc4       _exit                      0000000140005cc4     libucrt:exit.obj
 0001:00004cd0       _cexit                     0000000140005cd0     libucrt:exit.obj
 0001:00004ce0       _c_exit                    0000000140005ce0     libucrt:exit.obj
 0001:00004cf0       _register_thread_local_exe_atexit_callback 0000000140005cf0     libucrt:exit.obj
 0001:00004d2c       __acrt_initialize_thread_local_exit_callback 0000000140005d2c     libucrt:exit.obj
 0001:00004fb0       _callnewh                  0000000140005fb0     libucrt:new_handler.obj
 0001:00004ff0       __acrt_initialize_new_handler 0000000140005ff0     libucrt:new_handler.obj
 0001:00005000       _query_new_handler         0000000140006000     libucrt:new_handler.obj
 0001:00005040       _set_new_handler           0000000140006040     libucrt:new_handler.obj
 0001:000050a0       ?_set_new_handler@@YAP6AH_K@ZH@Z 00000001400060a0     libucrt:new_handler.obj
 0001:000050ac       __acrt_set_locale_changed  00000001400060ac     libucrt:wsetlocale.obj
 0001:000050b8       _configthreadlocale        00000001400060b8     libucrt:wsetlocale.obj
 0001:00005124       __acrt_uninitialize_locale 0000000140006124     libucrt:wsetlocale.obj
 0001:000051c4       _configure_narrow_argv     00000001400061c4     libucrt:argv_parsing.obj
 0001:00005344       __acrt_allocate_buffer_for_argv 0000000140006344     libucrt:argv_parsing.obj
 0001:00005564       _initialize_onexit_table   0000000140006564     libucrt:onexit.obj
 0001:0000558c       _register_onexit_function  000000014000658c     libucrt:onexit.obj
 0001:000055d4       _execute_onexit_table      00000001400065d4     libucrt:onexit.obj
 0001:00005618       _crt_atexit                0000000140006618     libucrt:onexit.obj
 0001:00005968       _initialize_narrow_environment 0000000140006968     libucrt:environment_initialization.obj
 0001:00005970       _get_initial_narrow_environment 0000000140006970     libucrt:environment_initialization.obj
 0001:000059c0       __dcrt_get_or_create_narrow_environment_nolock 00000001400069c0     libucrt:environment_initialization.obj
 0001:000059fc       __dcrt_uninitialize_environments_nolock 00000001400069fc     libucrt:environment_initialization.obj
 0001:00005d24       _initterm                  0000000140006d24     libucrt:initterm.obj
 0001:00005d5c       _initterm_e                0000000140006d5c     libucrt:initterm.obj
 0001:00005d98       _seh_filter_exe            0000000140006d98     libucrt:exception_filter.obj
 0001:00005f04       _query_app_type            0000000140006f04     libucrt:report_runtime_error.obj
 0001:00005f0c       _set_app_type              0000000140006f0c     libucrt:report_runtime_error.obj
 0001:00005f14       _set_fmode                 0000000140006f14     libucrt:setmode.obj
 0001:00005f60       _query_new_mode            0000000140006f60     libucrt:new_mode.obj
 0001:00005f70       _set_new_mode              0000000140006f70     libucrt:new_mode.obj
 0001:00005f9c       abort                      0000000140006f9c     libucrt:abort.obj
 0001:00006000       calloc                     0000000140007000     libucrt:calloc.obj
 0001:00006010       free                       0000000140007010     libucrt:free.obj
 0001:00006020       malloc                     0000000140007020     libucrt:malloc.obj
 0001:00006030       realloc                    0000000140007030     libucrt:realloc.obj
 0001:00006040       strcpy_s                   0000000140007040     libucrt:strcpy_s.obj
 0001:000060c0       terminate                  00000001400070c0     libucrt:terminate.obj
 0001:000060e0       wcsncmp                    00000001400070e0     libucrt:wcsncmp.obj
 0001:00006114       __acrt_initialize_winapi_thunks 0000000140007114     libucrt:winapi_thunks.obj
 0001:00006144       __acrt_uninitialize_winapi_thunks 0000000140007144     libucrt:winapi_thunks.obj
 0001:00006188       __acrt_AreFileApisANSI     0000000140007188     libucrt:winapi_thunks.obj
 0001:000061d4       __acrt_CompareStringEx     00000001400071d4     libucrt:winapi_thunks.obj
 0001:00006298       __acrt_FlsAlloc            0000000140007298     libucrt:winapi_thunks.obj
 0001:000062a0       __acrt_FlsFree             00000001400072a0     libucrt:winapi_thunks.obj
 0001:000062a8       __acrt_FlsGetValue         00000001400072a8     libucrt:winapi_thunks.obj
 0001:000062b0       __acrt_FlsSetValue         00000001400072b0     libucrt:winapi_thunks.obj
 0001:000062b8       __acrt_FlsGetValue2        00000001400072b8     libucrt:winapi_thunks.obj
 0001:000062c4       __acrt_InitializeCriticalSectionEx 00000001400072c4     libucrt:winapi_thunks.obj
 0001:000062cc       __acrt_LCMapStringEx       00000001400072cc     libucrt:winapi_thunks.obj
 0001:000063c0       __acrt_LocaleNameToLCID    00000001400073c0     libucrt:winapi_thunks.obj
 0001:00006424       __acrt_AppPolicyGetProcessTerminationMethodInternal 0000000140007424     libucrt:winapi_thunks.obj
 0001:00006480       __acrt_tls2_supported      0000000140007480     libucrt:winapi_thunks.obj
 0001:000066b0       __acrt_initialize_locks    00000001400076b0     libucrt:locks.obj
 0001:000066f8       __acrt_uninitialize_locks  00000001400076f8     libucrt:locks.obj
 0001:00006730       __acrt_lock                0000000140007730     libucrt:locks.obj
 0001:0000674c       __acrt_unlock              000000014000774c     libucrt:locks.obj
 0001:00006770       _get_heap_handle           0000000140007770     libucrt:heap_handle.obj
 0001:00006780       __acrt_initialize_heap     0000000140007780     libucrt:heap_handle.obj
 0001:000067b0       __acrt_uninitialize_heap   00000001400077b0     libucrt:heap_handle.obj
 0001:000067d0       __acrt_getheap             00000001400077d0     libucrt:heap_handle.obj
 0001:000067d8       __acrt_initialize_ptd      00000001400077d8     libucrt:per_thread_data.obj
 0001:0000681c       __acrt_uninitialize_ptd    000000014000781c     libucrt:per_thread_data.obj
 0001:00006840       __acrt_getptd              0000000140007840     libucrt:per_thread_data.obj
 0001:0000685c       __acrt_getptd_head         000000014000785c     libucrt:per_thread_data.obj
 0001:000068a0       __acrt_getptd_noexit       00000001400078a0     libucrt:per_thread_data.obj
 0001:00006930       __acrt_getptd_noexit_explicit 0000000140007930     libucrt:per_thread_data.obj
 0001:00006bdc       ?internal_get_ptd_head_slow@@YAPEAU__acrt_ptd@@XZ 0000000140007bdc     libucrt:per_thread_data.obj
 0001:00006dbc       __acrt_initialize_lowio    0000000140007dbc     libucrt:ioinit.obj
 0001:00006df8       __acrt_uninitialize_lowio  0000000140007df8     libucrt:ioinit.obj
 0001:00007040       __acrt_update_thread_multibyte_data 0000000140008040     libucrt:mbctype.obj
 0001:0000705c       __acrt_initialize_multibyte 000000014000805c     libucrt:mbctype.obj
 0001:000070bc       ??0_LocaleUpdate@@QEAA@QEAU__crt_locale_pointers@@@Z 00000001400080bc     libucrt:mbctype.obj
 0001:00007158       _setmbcp_nolock            0000000140008158     libucrt:mbctype.obj
 0001:00007c30       _free_base                 0000000140008c30     libucrt:free_base.obj
 0001:00007c88       __acrt_execute_initializers 0000000140008c88     libucrt:shared_initialization.obj
 0001:00007d08       __acrt_execute_uninitializers 0000000140008d08     libucrt:shared_initialization.obj
 0001:00007d44       _invalid_parameter_noinfo  0000000140008d44     libucrt:invalid_parameter.obj
 0001:00007d64       _invoke_watson             0000000140008d64     libucrt:invalid_parameter.obj
 0001:00007dac       __acrt_call_reportfault    0000000140008dac     libucrt:invalid_parameter.obj
 0001:00007f1c       __acrt_initialize_invalid_parameter_handler 0000000140008f1c     libucrt:invalid_parameter.obj
 0001:00007f24       _invalid_parameter_internal 0000000140008f24     libucrt:invalid_parameter.obj
 0001:00007fdc       ?get_raw_ptd_noexit@__crt_cached_ptd_host@@QEAAPEAU__acrt_ptd@@XZ 0000000140008fdc     libucrt:invalid_parameter.obj
 0001:00008048       ?value@?$dual_state_global@P6AXPEB_W00I_K@Z@__crt_state_management@@QEAAAEAP6AXPEB_W00I_K@ZAEAV__crt_cached_ptd_host@@@Z 0000000140009048     libucrt:invalid_parameter.obj
 0001:00008094       _invalid_parameter         0000000140009094     libucrt:invalid_parameter.obj
 0001:00008130       __acrt_initialize_signal_handlers 0000000140009130     libucrt:signal.obj
 0001:00008150       __acrt_get_sigabrt_handler 0000000140009150     libucrt:signal.obj
 0001:00008180       raise                      0000000140009180     libucrt:signal.obj
 0001:00008424       _flushall                  0000000140009424     libucrt:fflush.obj
 0001:0000842c       _fflush_nolock             000000014000942c     libucrt:fflush.obj
 0001:00008500       __acrt_stdio_flush_nolock  0000000140009500     libucrt:fflush.obj
 0001:0000876c       _errno                     000000014000976c     libucrt:errno.obj
 0001:00008790       __doserrno                 0000000140009790     libucrt:errno.obj
 0001:000087b4       __acrt_errno_map_os_error  00000001400097b4     libucrt:errno.obj
 0001:000087dc       __acrt_errno_from_os_error 00000001400097dc     libucrt:errno.obj
 0001:000088ac       __acrt_errno_map_os_error_ptd 00000001400098ac     libucrt:errno.obj
 0001:000088d0       _calloc_base               00000001400098d0     libucrt:calloc_base.obj
 0001:00008948       _fcloseall                 0000000140009948     libucrt:closeall.obj
 0001:000089fc       __acrt_stdio_free_buffer_nolock 00000001400099fc     libucrt:_freebuf.obj
 0001:00008a40       _malloc_base               0000000140009a40     libucrt:malloc_base.obj
 0001:00008aa0       __acrt_update_locale_info  0000000140009aa0     libucrt:locale_update.obj
 0001:00008ad4       __acrt_update_multibyte_info 0000000140009ad4     libucrt:locale_update.obj
 0001:00008b08       __acrt_update_locale_info_explicit 0000000140009b08     libucrt:locale_update.obj
 0001:00008b40       __acrt_update_multibyte_info_explicit 0000000140009b40     libucrt:locale_update.obj
 0001:00008b78       _mbtowc_internal           0000000140009b78     libucrt:mbtowc.obj
 0001:00008cf0       ?__mblen_utf8@__crt_mbstring@@YAHPEBD@Z 0000000140009cf0     libucrt:mbrtoc32.obj
 0001:00008d28       ?__mbrtoc32_utf8@__crt_mbstring@@YA_KPEA_UPEBD_KPEAU_Mbstatet@@AEAV__crt_cached_ptd_host@@@Z 0000000140009d28     libucrt:mbrtoc32.obj
 0001:00008ee8       ?__mbrtowc_utf8@__crt_mbstring@@YA_KPEA_WPEBD_KPEAU_Mbstatet@@AEAV__crt_cached_ptd_host@@@Z 0000000140009ee8     libucrt:mbrtowc.obj
 0001:00008f30       ?__mbsrtowcs_utf8@__crt_mbstring@@YA_KPEA_WPEAPEBD_KPEAU_Mbstatet@@AEAV__crt_cached_ptd_host@@@Z 0000000140009f30     libucrt:mbrtowc.obj
 0001:000090e8       _fileno                    000000014000a0e8     libucrt:fileno.obj
 0001:00009110       __GSHandlerCheck_EH        000000014000a110     libcmt:gshandlereh.obj
 0001:00009190       __acrt_app_verifier_enabled 000000014000a190     libucrt:peb_access.obj
 0001:000091ac       __acrt_is_secure_process   000000014000a1ac     libucrt:peb_access.obj
 0001:000091c4       __acrt_get_process_end_policy 000000014000a1c4     libucrt:win_policies.obj
 0001:000091f4       __acrt_locale_free_monetary 000000014000a1f4     libucrt:initmon.obj
 0001:00009300       __acrt_locale_free_numeric 000000014000a300     libucrt:initnum.obj
 0001:0000936c       __acrt_locale_free_time    000000014000a36c     libucrt:inittime.obj
 0001:000094a8       __acrt_GetStringTypeA      000000014000a4a8     libucrt:getstringtypea.obj
 0001:00009638       __acrt_MultiByteToWideChar 000000014000a638     libucrt:multibytetowidechar.obj
 0001:000096c8       __acrt_add_locale_ref      000000014000a6c8     libucrt:locale_refcounting.obj
 0001:00009754       __acrt_release_locale_ref  000000014000a754     libucrt:locale_refcounting.obj
 0001:000097fc       __acrt_free_locale         000000014000a7fc     libucrt:locale_refcounting.obj
 0001:00009974       __acrt_locale_add_lc_time_reference 000000014000a974     libucrt:locale_refcounting.obj
 0001:0000999c       __acrt_locale_release_lc_time_reference 000000014000a99c     libucrt:locale_refcounting.obj
 0001:000099c4       __acrt_locale_free_lc_time_if_unreferenced 000000014000a9c4     libucrt:locale_refcounting.obj
 0001:000099fc       __acrt_update_thread_locale_data 000000014000a9fc     libucrt:locale_refcounting.obj
 0001:00009a6c       _updatetlocinfoEx_nolock   000000014000aa6c     libucrt:locale_refcounting.obj
 0001:00009ae0       __acrt_expand_narrow_argv_wildcards 000000014000aae0     libucrt:argv_wildcards.obj
 0001:00009d24       ??$__acrt_convert_wcs_mbs_cp@D_WV<lambda_7c9dea7b4ca7285d2cdb541a38da6275>@@U__crt_win32_buffer_internal_dynamic_resizing@@@@YAHQEBDAEAV?$__crt_win32_buffer@_WU__crt_win32_buffer_internal_dynamic_resizing@@@@AEBV<lambda_7c9dea7b4ca7285d2cdb541a38da6275>@@I@Z 000000014000ad24     libucrt:argv_wildcards.obj
 0001:00009ec4       ??$__acrt_convert_wcs_mbs_cp@_WDV<lambda_d8593a27d1aa8c02be35c86a17d324c4>@@U__crt_win32_buffer_internal_dynamic_resizing@@@@YAHQEB_WAEAV?$__crt_win32_buffer@DU__crt_win32_buffer_internal_dynamic_resizing@@@@AEBV<lambda_d8593a27d1aa8c02be35c86a17d324c4>@@I@Z 000000014000aec4     libucrt:argv_wildcards.obj
 0001:0000a568       __acrt_GetModuleFileNameA  000000014000b568     libucrt:getmodulefilenamea.obj
 0001:0000a68c       ??$__acrt_convert_wcs_mbs_cp@_WDV<lambda_f788ae46380686e8b737efdd8c720d07>@@U__crt_win32_buffer_no_resizing@@@@YAHQEB_WAEAV?$__crt_win32_buffer@DU__crt_win32_buffer_no_resizing@@@@AEBV<lambda_f788ae46380686e8b737efdd8c720d07>@@I@Z 000000014000b68c     libucrt:getmodulefilenamea.obj
 0001:0000a7a8       _ismbblead                 000000014000b7a8     libucrt:ismbbyte.obj
 0001:0000a830       _recalloc_base             000000014000b830     libucrt:recalloc.obj
 0001:0000a8d0       _recalloc                  000000014000b8d0     libucrt:recalloc.obj
 0001:0000a8d8       __acrt_WideCharToMultiByte 000000014000b8d8     libucrt:widechartomultibyte.obj
 0001:0000a9b8       __dcrt_get_narrow_environment_from_os 000000014000b9b8     libucrt:get_environment_from_os.obj
 0001:0000aac8       __dcrt_set_variable_in_narrow_environment_nolock 000000014000bac8     libucrt:setenv.obj
 0001:0000af10       _get_osfhandle             000000014000bf10     libucrt:osfinfo.obj
 0001:0000af88       _free_osfhnd               000000014000bf88     libucrt:osfinfo.obj
 0001:0000b044       __acrt_lowio_create_handle_array 000000014000c044     libucrt:osfinfo.obj
 0001:0000b0ec       __acrt_lowio_destroy_handle_array 000000014000c0ec     libucrt:osfinfo.obj
 0001:0000b13c       __acrt_lowio_ensure_fh_exists 000000014000c13c     libucrt:osfinfo.obj
 0001:0000b1e4       __acrt_lowio_lock_fh       000000014000c1e4     libucrt:osfinfo.obj
 0001:0000b20c       __acrt_lowio_unlock_fh     000000014000c20c     libucrt:osfinfo.obj
 0001:0000b234       __acrt_initialize_fmode    000000014000c234     libucrt:txtmode.obj
 0001:0000b250       _realloc_base              000000014000c250     libucrt:realloc_base.obj
 0001:0000b2cc       __C_specific_handler_noexcept 000000014000c2cc     libvcruntime:chandler_noexcept.obj
 0001:0000b318       __acrt_DownlevelLocaleNameToLCID 000000014000c318     libucrt:lcidtoname_downlevel.obj
 0001:0000b3c0       __acrt_LCMapStringA        000000014000c3c0     libucrt:lcmapstringa.obj
 0001:0000b7a0       _commit                    000000014000c7a0     libucrt:commit.obj
 0001:0000b8c0       _write_nolock              000000014000c8c0     libucrt:write.obj
 0001:0000bbf0       _write_internal            000000014000cbf0     libucrt:write.obj
 0001:0000c53c       _isatty                    000000014000d53c     libucrt:isatty.obj
 0001:0000c59c       fclose                     000000014000d59c     libucrt:fclose.obj
 0001:0000c758       ?return_illegal_sequence@__crt_mbstring@@YA_KPEAU_Mbstatet@@AEAV__crt_cached_ptd_host@@@Z 000000014000d758     libucrt:common_utf8.obj
 0001:0000c76c       ?reset_and_return@__crt_mbstring@@YA_K_KPEAU_Mbstatet@@@Z 000000014000d76c     libucrt:common_utf8.obj
 0001:0000c790       __chkstk                   000000014000d790     libcmt:chkstk.obj
 0001:0000c790       _alloca_probe              000000014000d790     libcmt:chkstk.obj
 0001:0000c7e0       __ascii_wcsnicmp           000000014000d7e0     libucrt:wcsnicmp.obj
 0001:0000c850       qsort                      000000014000d850     libucrt:qsort.obj
 0001:0000cbf0       strncpy_s                  000000014000dbf0     libucrt:strncpy_s.obj
 0001:0000cd20       strpbrk                    000000014000dd20     libucrt:strpbrk.obj
 0001:0000d17c       _mbsdec                    000000014000e17c     libucrt:mbsdec.obj
 0001:0000d184       _mbsdec_l                  000000014000e184     libucrt:mbsdec.obj
 0001:0000d220       _msize_base                000000014000e220     libucrt:msize.obj
 0001:0000d260       _msize                     000000014000e260     libucrt:msize.obj
 0001:0000d268       strchr                     000000014000e268     libvcruntime:strchr.obj
 0001:0000d2f0       _strnicoll                 000000014000e2f0     libucrt:strnicol.obj
 0001:0000d494       __acrt_SetEnvironmentVariableA 000000014000e494     libucrt:setenvironmentvariablea.obj
 0001:0000d634       _lseeki64_nolock_internal  000000014000e634     libucrt:lseek.obj
 0001:0000d6f0       __strncnt                  000000014000e6f0     libucrt:strncnt.obj
 0001:0000d708       _putwch_nolock             000000014000e708     libucrt:putwch.obj
 0001:0000d748       _close_nolock_internal     000000014000e748     libucrt:close.obj
 0001:0000d818       _close_internal            000000014000e818     libucrt:close.obj
 0001:0000d954       ?__acrt_stdio_free_stream@@YAXV__crt_stdio_stream@@@Z 000000014000e954     libucrt:stream.obj
 0001:0000d970       _guard_check_icall         000000014000e970     libcmt:checkcfg.obj
 0001:0000d980       _strnicmp                  000000014000e980     libucrt:strnicmp.obj
 0001:0000da10       _strnicmp_l                000000014000ea10     libucrt:strnicmp.obj
 0001:0000dba4       __acrt_CompareStringA      000000014000eba4     libucrt:comparestringa.obj
 0001:0000dfc0       __dcrt_lowio_ensure_console_output_initialized 000000014000efc0     libucrt:initcon.obj
 0001:0000e014       __dcrt_write_console       000000014000f014     libucrt:initcon.obj
 0001:0000e0d4       __dcrt_terminate_console_output 000000014000f0d4     libucrt:initcon.obj
 0001:0000e0f0       __acrt_initialize_fma3     000000014000f0f0     libucrt:fma3_available.obj
 0001:0000e1f0       _guard_dispatch_icall_nop  000000014000f1f0     libcmt:guard_dispatch.obj
 0001:0000e210       _guard_xfg_dispatch_icall_nop 000000014000f210     libcmt:guard_xfg_dispatch.obj
 0001:0000e230       _guard_dispatch_icall      000000014000f230     libcmt:dispatchcfg.obj
 0001:0000e230       _guard_dispatch_icall_$fo_default$ 000000014000f230     libcmt:dispatchcfg.obj
 0001:0000e260       memcpy_repmovs             000000014000f260     libvcruntime:memcpy.obj
 0001:0000e270       memcpy                     000000014000f270     libvcruntime:memcpy.obj
 0001:0000e270       memmove                    000000014000f270     libvcruntime:memcpy.obj
 0001:0000e270       memcpy_$fo_default$        000000014000f270     libvcruntime:memcpy.obj
 0001:0000e900       memset_repstos             000000014000f900     libvcruntime:memset.obj
 0001:0000e910       memset                     000000014000f910     libvcruntime:memset.obj
 0001:0000ecb0       strcmp                     000000014000fcb0     libucrt:strcmp.obj
 0001:0000ed30       strlen                     000000014000fd30     libucrt:strlen.obj
 0001:0000edf0       strncmp                    000000014000fdf0     libucrt:strncmp.obj
 0002:00000010       ??_7exception@std@@6B@     0000000140011010     aurora_runtime:memory.obj
 0002:00000028       ??_7type_info@@6B@         0000000140011028     libcmt:std_type_info_static.obj
 0002:000009d0       ??_7bad_exception@std@@6B@ 00000001400119d0     libvcruntime:frame.obj
 0002:00000a20       _pDestructExceptionObject  0000000140011a20     libvcruntime:ehhelpers.obj
 0002:00001140       _Asan_string_should_annotate_default 0000000140012140     libcpmt:asan_noop.obj
 0002:00001140       _Asan_string_should_annotate_default 0000000140012140     libcpmt:asan_noop.obj
 0002:00001141       _Asan_vector_should_annotate_default 0000000140012141     libcpmt:asan_noop.obj
 0002:00001142       _Asan_optional_should_annotate_default 0000000140012142     libcpmt:asan_noop.obj
 0002:00001150       _load_config_used          0000000140012150     libcmt:loadcfg.obj
 0002:00001290       __xmm@ffffffffffffffffffffffffffffffff 0000000140012290     libcmt:utility.obj
 0002:00001440       __acrt_exception_action_table 0000000140012440     libucrt:exception_filter.obj
 0002:00001500       __acrt_signal_action_table_count 0000000140012500     libucrt:exception_filter.obj
 0002:00001508       __acrt_signal_action_first_fpe_index 0000000140012508     libucrt:exception_filter.obj
 0002:00001510       __acrt_signal_action_fpe_count 0000000140012510     libucrt:exception_filter.obj
 0002:000016a0       __lc_time_c                00000001400126a0     libucrt:nlsdata.obj
 0002:00001ad0       __newctype                 0000000140012ad0     libucrt:ctype.obj
 0002:00001dd0       __newclmap                 0000000140012dd0     libucrt:ctype.obj
 0002:00001f50       __newcumap                 0000000140012f50     libucrt:ctype.obj
 0002:00004010       __log10_256_lead           0000000140015010     libucrt:log10_256_lead_tail_table.obj
 0002:00004820       __log10_256_tail           0000000140015820     libucrt:log10_256_lead_tail_table.obj
 0002:00005030       __log_F_inv_qword          0000000140016030     libucrt:log_f_inv_qword_table.obj
 0002:000059a0       _tls_used                  00000001400169a0     libcmt:tlssup.obj
 0002:000059c8       ??_R4exception@std@@6B@    00000001400169c8     aurora_runtime:memory.obj
 0002:000059f0       ??_R3exception@std@@8      00000001400169f0     aurora_runtime:memory.obj
 0002:00005a08       ??_R2exception@std@@8      0000000140016a08     aurora_runtime:memory.obj
 0002:00005a18       ??_R1A@?0A@EA@exception@std@@8 0000000140016a18     aurora_runtime:memory.obj
 0002:00005a40       ??_R4type_info@@6B@        0000000140016a40     libcmt:std_type_info_static.obj
 0002:00005a68       ??_R3type_info@@8          0000000140016a68     libcmt:std_type_info_static.obj
 0002:00005a80       ??_R2type_info@@8          0000000140016a80     libcmt:std_type_info_static.obj
 0002:00005a90       ??_R1A@?0A@EA@type_info@@8 0000000140016a90     libcmt:std_type_info_static.obj
 0002:00005ab8       ??_R4bad_exception@std@@6B@ 0000000140016ab8     libvcruntime:frame.obj
 0002:00005ae0       ??_R3bad_exception@std@@8  0000000140016ae0     libvcruntime:frame.obj
 0002:00005af8       ??_R2bad_exception@std@@8  0000000140016af8     libvcruntime:frame.obj
 0002:00005b10       ??_R1A@?0A@EA@bad_exception@std@@8 0000000140016b10     libvcruntime:frame.obj
 0002:00005b34       ??_C@_00CNPNBAHC@@         0000000140016b34     aurora_runtime:io.obj
 0002:00005b38       ??_C@_01PJKLJHI@?$HO@      0000000140016b38     libvcruntime:undname.obj
 0002:00005b3c       ??_C@_02NONPIBCD@?$HM?$HM@ 0000000140016b3c     libvcruntime:undname.obj
 0002:00005b40       ??_C@_01DNKMNLPK@?$HM@     0000000140016b40     libvcruntime:undname.obj
 0002:00005b44       ??_C@_04MIEPOIFP@July@     0000000140016b44     libucrt:nlsdata.obj
 0002:00005b4c       ??_C@_06OOPIFAJ@Sunday@    0000000140016b4c     libucrt:nlsdata.obj
 0002:00005b54       ??_C@_06JLEDEDGH@Monday@   0000000140016b54     libucrt:nlsdata.obj
 0002:00005b5c       ??_C@_06JECMNKMI@Friday@   0000000140016b5c     libucrt:nlsdata.obj
 0002:00005b64       ??_C@_03CNMDKL@May@        0000000140016b64     libucrt:nlsdata.obj
 0002:00005b68       ??_C@_04NIHEBCM@?5new@     0000000140016b68     libvcruntime:undname.obj
 0002:00005b70       ??_C@_03JPJOFNIA@Nov@      0000000140016b70     libucrt:nlsdata.obj
 0002:00005b74       ??_C@_03IOFIKPDN@Thu@      0000000140016b74     libucrt:nlsdata.obj
 0002:00005b78       ??_C@_06LBBHFDDG@August@   0000000140016b78     libucrt:nlsdata.obj
 0002:00005b80       ??_C@_03BMAOKBAD@Oct@      0000000140016b80     libucrt:nlsdata.obj
 0002:00005b84       ??_C@_03FEFJNEK@Sat@       0000000140016b84     libucrt:nlsdata.obj
 0002:00005b88       ??_C@_03LEOLGMJP@Apr@      0000000140016b88     libucrt:nlsdata.obj
 0002:00005b8c       ??_C@_03ODNJBKGA@Mar@      0000000140016b8c     libucrt:nlsdata.obj
 0002:00005b90       ??_C@_03GGCAPAJC@Sep@      0000000140016b90     libucrt:nlsdata.obj
 0002:00005b94       ??_C@_03KOEHGMDN@Sun@      0000000140016b94     libucrt:nlsdata.obj
 0002:00005b98       ??_C@_03IDFGHECI@Jun@      0000000140016b98     libucrt:nlsdata.obj
 0002:00005b9c       ??_C@_03PDAGKDH@Mon@       0000000140016b9c     libucrt:nlsdata.obj
 0002:00005ba0       ??_C@_03JIHJHPIE@Jan@      0000000140016ba0     libucrt:nlsdata.obj
 0002:00005ba4       ??_C@_03LBGABGKK@Jul@      0000000140016ba4     libucrt:nlsdata.obj
 0002:00005ba8       ??_C@_05DMJDNLEJ@April@    0000000140016ba8     libucrt:nlsdata.obj
 0002:00005bb0       ??_C@_03IDIOELNC@Fri@      0000000140016bb0     libucrt:nlsdata.obj
 0002:00005bb4       ??_C@_06GHPCKEAG@__eabi@   0000000140016bb4     libvcruntime:undname.obj
 0002:00005bbc       ??_C@_05HPCKOFNC@March@    0000000140016bbc     libucrt:nlsdata.obj
 0002:00005bc4       ??_C@_03IFJFEIGA@Aug@      0000000140016bc4     libucrt:nlsdata.obj
 0002:00005bc8       ??_C@_03NAGEINEP@Tue@      0000000140016bc8     libucrt:nlsdata.obj
 0002:00005bcc       ??_C@_04CNLMGBGM@June@     0000000140016bcc     libucrt:nlsdata.obj
 0002:00005bd4       ??_C@_03MHOMLAJA@Wed@      0000000140016bd4     libucrt:nlsdata.obj
 0002:00005bd8       ??_C@_03MKABNOCG@Dec@      0000000140016bd8     libucrt:nlsdata.obj
 0002:00005bdc       ??_C@_03HJBDCHOM@Feb@      0000000140016bdc     libucrt:nlsdata.obj
 0002:00005be0       ??_C@_01JKBOJNNK@?$FO@     0000000140016be0     libvcruntime:undname.obj
 0002:00005be4       ??_C@_06FHBGPFGH@?5new?$FL?$FN@ 0000000140016be4     libvcruntime:undname.obj
 0002:00005be8       ??_C@_02GPECMEKF@?$FL?$FN@ 0000000140016be8     libvcruntime:undname.obj
 0002:00005bec       ??_C@_02CJNFDJBF@PM@       0000000140016bec     libucrt:nlsdata.obj
 0002:00005bf0       ??_C@_02DEDBPAFC@AM@       0000000140016bf0     libucrt:nlsdata.obj
 0002:00005bf4       ??_C@_05KHLCHHI@?$GARTTI@  0000000140016bf4     libvcruntime:undname.obj
 0002:00005bfc       ??_C@_03KLGMFNMG@?$GAEH@   0000000140016bfc     libvcruntime:undname.obj
 0002:00005c00       ??_C@_02GPIOPFAK@?$DO?$DO@ 0000000140016c00     libvcruntime:undname.obj
 0002:00005c04       ??_C@_02HBOOOICD@?9?$DO@   0000000140016c04     libvcruntime:undname.obj
 0002:00005c08       ??_C@_01PPODPGHN@?$DO@     0000000140016c08     libvcruntime:undname.obj
 0002:00005c0c       ??_C@_02DHLNPPGH@?$HM?$DN@ 0000000140016c0c     libvcruntime:undname.obj
 0002:00005c10       ??_C@_02MHEGNOJ@?$FO?$DN@  0000000140016c10     libvcruntime:undname.obj
 0002:00005c14       ??_C@_03IKFCCPFF@?$DO?$DO?$DN@ 0000000140016c14     libvcruntime:undname.obj
 0002:00005c18       ??_C@_02EEKDKGMJ@?$DO?$DN@ 0000000140016c18     libvcruntime:undname.obj
 0002:00005c1c       ??_C@_02EGOFBIJA@?$DN?$DN@ 0000000140016c1c     libvcruntime:undname.obj
 0002:00005c20       ??_C@_03CDNPDDLA@?$DM?$DM?$DN@ 0000000140016c20     libvcruntime:undname.obj
 0002:00005c24       ??_C@_02EHCHHCKH@?$DM?$DN@ 0000000140016c24     libvcruntime:undname.obj
 0002:00005c28       ??_C@_02FJEHGPIO@?1?$DN@   0000000140016c28     libvcruntime:undname.obj
 0002:00005c2c       ??_C@_02FKMDLLOA@?9?$DN@   0000000140016c2c     libvcruntime:undname.obj
 0002:00005c30       ??_C@_02FOEOMHFC@?$CL?$DN@ 0000000140016c30     libvcruntime:undname.obj
 0002:00005c34       ??_C@_02FPIMKNGF@?$CK?$DN@ 0000000140016c34     libvcruntime:undname.obj
 0002:00005c38       ??_C@_02FGJGFEAB@?$CG?$DN@ 0000000140016c38     libvcruntime:undname.obj
 0002:00005c3c       ??_C@_02FENAOKFI@?$CF?$DN@ 0000000140016c3c     libvcruntime:undname.obj
 0002:00005c40       ??_C@_02FDNJECIE@?$CB?$DN@ 0000000140016c40     libvcruntime:undname.obj
 0002:00005c44       ??_C@_01NEMOKFLO@?$DN@     0000000140016c44     libvcruntime:undname.obj
 0002:00005c48       ??_C@_02FODMEDOG@?$DM?$DM@ 0000000140016c48     libvcruntime:undname.obj
 0002:00005c4c       ??_C@_01MNNFJEPP@?$DM@     0000000140016c4c     libvcruntime:undname.obj
 0002:00005c50       ??_C@_01KMDKNFGN@?1@       0000000140016c50     libvcruntime:undname.obj
 0002:00005c54       ??_C@_02BAABKJLB@?9?9@     0000000140016c54     libvcruntime:undname.obj
 0002:00005c58       ??_C@_01JOAMLHOP@?9@       0000000140016c58     libvcruntime:undname.obj
 0002:00005c5c       ??_C@_01IHBHIGKO@?0@       0000000140016c5c     libvcruntime:undname.obj
 0002:00005c60       ??_C@_02ECNGHCIF@?$CL?$CL@ 0000000140016c60     libvcruntime:undname.obj
 0002:00005c64       ??_C@_01MIFGBAGJ@?$CL@     0000000140016c64     libvcruntime:undname.obj
 0002:00005c68       ??_C@_03MNHNFDLC@?9?$DO?$CK@ 0000000140016c68     libvcruntime:undname.obj
 0002:00005c6c       ??_C@_01NBENCBCI@?$CK@     0000000140016c6c     libvcruntime:undname.obj
 0002:00005c70       ??_C@_02HCKGKOFO@?$CI?$CJ@ 0000000140016c70     libvcruntime:undname.obj
 0002:00005c74       ??_C@_02PPKAJPJL@?$CG?$CG@ 0000000140016c74     libvcruntime:undname.obj
 0002:00005c78       ??_C@_01HNPIGOCE@?$CG@     0000000140016c78     libvcruntime:undname.obj
 0002:00005c7c       ??_C@_01FGNFDNOH@?$CF@     0000000140016c7c     libvcruntime:undname.obj
 0002:00005c80       ??_C@_01DCLJPIOD@?$CB@     0000000140016c80     libvcruntime:undname.obj
 0002:00005c84       ??_C@_05IHCDMNLM@null?6@   0000000140016c84     aurora_runtime:io.obj
 0002:00005c88       ??_C@_01EEMJAFIK@?6@       0000000140016c88     aurora_runtime:io.obj
 0002:00005c8c       ??_C@_15BBFAICNG@?$AAu?$AAz@ 0000000140016c8c     libucrt:lcidtoname_downlevel.obj
 0002:00005c94       ??_C@_15IJBHMCFL@?$AAa?$AAz@ 0000000140016c94     libucrt:lcidtoname_downlevel.obj
 0002:00005c9c       ??_C@_15DKDJEOND@?$AAk?$AAy@ 0000000140016c9c     libucrt:lcidtoname_downlevel.obj
 0002:00005ca4       ??_C@_15LMKNDMHN@?$AAh?$AAy@ 0000000140016ca4     libucrt:lcidtoname_downlevel.obj
 0002:00005cac       ??_C@_15DFGDLJBG@?$AAs?$AAw@ 0000000140016cac     libucrt:lcidtoname_downlevel.obj
 0002:00005cb4       ??_C@_15INNPNOHD@?$AAs?$AAv@ 0000000140016cb4     libucrt:lcidtoname_downlevel.obj
 0002:00005cbc       ??_C@_15HPFPGODN@?$AAl?$AAv@ 0000000140016cbc     libucrt:lcidtoname_downlevel.obj
 0002:00005cc4       ??_C@_15FEDGKCDI@?$AAr?$AAu@ 0000000140016cc4     libucrt:lcidtoname_downlevel.obj
 0002:00005ccc       ??_C@_15PGHLIDMF@?$AAh?$AAu@ 0000000140016ccc     libucrt:lcidtoname_downlevel.obj
 0002:00005cd4       ??_C@_15HCNDBBA@?$AAg?$AAu@ 0000000140016cd4     libucrt:lcidtoname_downlevel.obj
 0002:00005cdc       ??_C@_15EKOFJABL@?$AAe?$AAu@ 0000000140016cdc     libucrt:lcidtoname_downlevel.obj
 0002:00005ce4       ??_C@_15DKNDCGEA@?$AAt?$AAt@ 0000000140016ce4     libucrt:lcidtoname_downlevel.obj
 0002:00005cec       ??_C@_15KBECGEFG@?$AAp?$AAt@ 0000000140016cec     libucrt:lcidtoname_downlevel.obj
 0002:00005cf4       ??_C@_15NFFGKGLG@?$AAl?$AAt@ 0000000140016cf4     libucrt:lcidtoname_downlevel.obj
 0002:00005cfc       ??_C@_15IFJLDHAF@?$AAi?$AAt@ 0000000140016cfc     libucrt:lcidtoname_downlevel.obj
 0002:00005d04       ??_C@_15PCFJPHHO@?$AAe?$AAt@ 0000000140016d04     libucrt:lcidtoname_downlevel.obj
 0002:00005d0c       ??_C@_15IDNNENKK@?$AAm?$AAs@ 0000000140016d0c     libucrt:lcidtoname_downlevel.obj
 0002:00005d14       ??_C@_15BIEMAPLM@?$AAi?$AAs@ 0000000140016d14     libucrt:lcidtoname_downlevel.obj
 0002:00005d1c       ??_C@_15GPIOMPMH@?$AAe?$AAs@ 0000000140016d1c     libucrt:lcidtoname_downlevel.obj
 0002:00005d24       ??_C@_15LJNHCMNK@?$AAc?$AAs@ 0000000140016d24     libucrt:lcidtoname_downlevel.obj
 0002:00005d2c       ??_C@_15NEOEKKDJ@?$AAu?$AAr@ 0000000140016d2c     libucrt:lcidtoname_downlevel.obj
 0002:00005d34       ??_C@_15BPLIHJJM@?$AAt?$AAr@ 0000000140016d34     libucrt:lcidtoname_downlevel.obj
 0002:00005d3c       ??_C@_15CLNEJCE@?$AAs?$AAr@ 0000000140016d3c     libucrt:lcidtoname_downlevel.obj
 0002:00005d44       ??_C@_15DLGBCKMP@?$AAm?$AAr@ 0000000140016d44     libucrt:lcidtoname_downlevel.obj
 0002:00005d4c       ??_C@_15GLKMLLHM@?$AAh?$AAr@ 0000000140016d4c     libucrt:lcidtoname_downlevel.obj
 0002:00005d54       ??_C@_15FBKGNKAM@?$AAf?$AAr@ 0000000140016d54     libucrt:lcidtoname_downlevel.obj
 0002:00005d5c       ??_C@_15EMKDOKLE@?$AAa?$AAr@ 0000000140016d5c     libucrt:lcidtoname_downlevel.obj
 0002:00005d64       ??_C@_15BAAIOGMK@?$AAs?$AAq@ 0000000140016d64     libucrt:lcidtoname_downlevel.obj
 0002:00005d6c       ??_C@_15GLJCBFMD@?$AAr?$AAo@ 0000000140016d6c     libucrt:lcidtoname_downlevel.obj
 0002:00005d74       ??_C@_15BPIGNHCD@?$AAn?$AAo@ 0000000140016d74     libucrt:lcidtoname_downlevel.obj
 0002:00005d7c       ??_C@_15EPELEGJA@?$AAk?$AAo@ 0000000140016d7c     libucrt:lcidtoname_downlevel.obj
 0002:00005d84       ??_C@_15PDNFFFEO@?$AAf?$AAo@ 0000000140016d84     libucrt:lcidtoname_downlevel.obj
 0002:00005d8c       ??_C@_15CBKOMCOI@?$AAm?$AAn@ 0000000140016d8c     libucrt:lcidtoname_downlevel.obj
 0002:00005d94       ??_C@_15PHPHCBPF@?$AAk?$AAn@ 0000000140016d94     libucrt:lcidtoname_downlevel.obj
 0002:00005d9c       ??_C@_15MNPNEAIF@?$AAe?$AAn@ 0000000140016d9c     libucrt:lcidtoname_downlevel.obj
 0002:00005da4       ??_C@_15LCHLGJII@?$AAs?$AAl@ 0000000140016da4     libucrt:lcidtoname_downlevel.obj
 0002:00005dac       ??_C@_15DEOPBLCG@?$AAp?$AAl@ 0000000140016dac     libucrt:lcidtoname_downlevel.obj
 0002:00005db4       ??_C@_15NDDHIMN@?$AAn?$AAl@ 0000000140016db4     libucrt:lcidtoname_downlevel.obj
 0002:00005dbc       ??_C@_15CKDMCJAF@?$AAg?$AAl@ 0000000140016dbc     libucrt:lcidtoname_downlevel.obj
 0002:00005dc4       ??_C@_15GHPEIIAO@?$AAe?$AAl@ 0000000140016dc4     libucrt:lcidtoname_downlevel.obj
 0002:00005dcc       ??_C@_15PJPFLCCM@?$AAu?$AAk@ 0000000140016dcc     libucrt:get_qualified_locale.obj
 0002:00005dd4       ??_C@_15CPKMFBDB@?$AAs?$AAk@ 0000000140016dd4     libucrt:lcidtoname_downlevel.obj
 0002:00005ddc       ??_C@_15BGHADCNK@?$AAm?$AAk@ 0000000140016ddc     libucrt:lcidtoname_downlevel.obj
 0002:00005de4       ??_C@_15MACJNBMH@?$AAk?$AAk@ 0000000140016de4     libucrt:lcidtoname_downlevel.obj
 0002:00005dec       ??_C@_15NFGIAIAJ@?$AAv?$AAi@ 0000000140016dec     libucrt:lcidtoname_downlevel.obj
 0002:00005df4       ??_C@_15OMLEGLOC@?$AAh?$AAi@ 0000000140016df4     libucrt:lcidtoname_downlevel.obj
 0002:00005dfc       ??_C@_15NGLOAKJC@?$AAf?$AAi@ 0000000140016dfc     libucrt:lcidtoname_downlevel.obj
 0002:00005e04       ??_C@_15CABMMOGH@?$AAt?$AAh@ 0000000140016e04     libucrt:lcidtoname_downlevel.obj
 0002:00005e0c       ??_C@_15KNPADPLH@?$AAb?$AAg@ 0000000140016e0c     libucrt:lcidtoname_downlevel.obj
 0002:00005e14       ??_C@_15JDNICKHM@?$AAa?$AAf@ 0000000140016e14     libucrt:lcidtoname_downlevel.obj
 0002:00005e1c       ??_C@_15NCHGBGLK@?$AAt?$AAe@ 0000000140016e1c     libucrt:lcidtoname_downlevel.obj
 0002:00005e24       ??_C@_15KGGCNEFK@?$AAh?$AAe@ 0000000140016e24     libucrt:lcidtoname_downlevel.obj
 0002:00005e2c       ??_C@_15NBKABECB@?$AAd?$AAe@ 0000000140016e2c     libucrt:lcidtoname_downlevel.obj
 0002:00005e34       ??_C@_15HPJPHDM@?$AAb?$AAe@ 0000000140016e34     libucrt:lcidtoname_downlevel.obj
 0002:00005e3c       ??_C@_15NFICGAJK@?$AAi?$AAd@ 0000000140016e3c     libucrt:lcidtoname_downlevel.obj
 0002:00005e44       ??_C@_15FNBEIBON@?$AAt?$AAa@ 0000000140016e44     libucrt:lcidtoname_downlevel.obj
 0002:00005e4c       ??_C@_15EABBLBFF@?$AAs?$AAa@ 0000000140016e4c     libucrt:lcidtoname_downlevel.obj
 0002:00005e54       ??_C@_15MGIFMDPL@?$AAp?$AAa@ 0000000140016e54     libucrt:lcidtoname_downlevel.obj
 0002:00005e5c       ??_C@_15KPJEDBKD@?$AAk?$AAa@ 0000000140016e5c     libucrt:lcidtoname_downlevel.obj
 0002:00005e64       ??_C@_15GEMIOCAG@?$AAj?$AAa@ 0000000140016e64     libucrt:lcidtoname_downlevel.obj
 0002:00005e6c       ??_C@_15BDAKCCHN@?$AAf?$AAa@ 0000000140016e6c     libucrt:lcidtoname_downlevel.obj
 0002:00005e74       ??_C@_15FOMCIDHG@?$AAd?$AAa@ 0000000140016e74     libucrt:lcidtoname_downlevel.obj
 0002:00005e7c       ??_C@_15EDMHLDMO@?$AAc?$AAa@ 0000000140016e7c     libucrt:lcidtoname_downlevel.obj
 0002:00005e84       ??_C@_15CLMNNGEL@?$AAP?$AAM@ 0000000140016e84     libucrt:nlsdata.obj
 0002:00005e8c       ??_C@_15ODEHAHHF@?$AAA?$AAM@ 0000000140016e8c     libucrt:nlsdata.obj
 0002:00005e90       ??_C@_11LOCGONAA@@         0000000140016e90     libucrt:lcidtoname_downlevel.obj
 0002:00005e98       ??_C@_0BE@CKGJFCPC@dddd?0?5MMMM?5dd?0?5yyyy@ 0000000140016e98     libucrt:nlsdata.obj
 0002:00005eb0       ??_C@_08BPBNCDIB@MM?1dd?1yy@ 0000000140016eb0     libucrt:nlsdata.obj
 0002:00005ec0       ??_C@_0BE@JIDOCPHM@directory?5not?5empty@ 0000000140016ec0     libcpmt:syserror.obj
 0002:00005ed8       ??_C@_0P@IPFDMIFL@text?5file?5busy@ 0000000140016ed8     libcpmt:syserror.obj
 0002:00005ee8       ??_C@_0BI@NGCEHDD@device?5or?5resource?5busy@ 0000000140016ee8     libcpmt:thread0.obj
 0002:00005f00       ??_C@_0BK@NDOCBPGE@no?5such?5file?5or?5directory@ 0000000140016f00     libcpmt:syserror.obj
 0002:00005f20       ??_C@_0BA@DOCPFFJG@not?5a?5directory@ 0000000140016f20     libcpmt:syserror.obj
 0002:00005f30       ??_C@_0P@FLLDBIDK@is?5a?5directory@ 0000000140016f30     libcpmt:syserror.obj
 0002:00005f40       ??_C@_0BC@ENOOLCNF@not?5enough?5memory@ 0000000140016f40     libcpmt:thread0.obj
 0002:00005f58       ??_C@_08GNJGEPFN@February@ 0000000140016f58     libucrt:nlsdata.obj
 0002:00005f68       ??_C@_07CGJPFGJA@January@  0000000140016f68     libucrt:nlsdata.obj
 0002:00005f70       ??_C@_08HACCIKIA@Thursday@ 0000000140016f70     libucrt:nlsdata.obj
 0002:00005f80       ??_C@_07BAAGCFCM@Tuesday@  0000000140016f80     libucrt:nlsdata.obj
 0002:00005f88       ??_C@_09DLIGFAKA@Wednesday@ 0000000140016f88     libucrt:nlsdata.obj
 0002:00005f98       ??_C@_08INBOOONO@Saturday@ 0000000140016f98     libucrt:nlsdata.obj
 0002:00005fa8       ??_C@_0BM@HCFOFFN@InitializeCriticalSectionEx@ 0000000140016fa8     libvcruntime:winapi_downlevel.obj
 0002:00005fc8       ??_C@_0O@KKBNKAPF@LCMapStringEx@ 0000000140016fc8     libucrt:winapi_thunks.obj
 0002:00005fd8       ??_C@_0BA@IHGNDAEB@CompareStringEx@ 0000000140016fd8     libucrt:winapi_thunks.obj
 0002:00005fe8       ??_C@_0P@DIIFGFCG@stream?5timeout@ 0000000140016fe8     libcpmt:syserror.obj
 0002:00005ff8       ??_C@_09KJPPMAOI@timed?5out@ 0000000140016ff8     libcpmt:syserror.obj
 0002:00006008       ??_C@_0BB@FCMFBGOM@invalid?5argument@ 0000000140017008     libcpmt:thread0.obj
 0002:00006020       ??_C@_0BC@GGEBGALA@operator?5co_await@ 0000000140017020     libvcruntime:undname.obj
 0002:00006038       ??_C@_0BB@IECNJNOI@connection?5reset@ 0000000140017038     libcpmt:syserror.obj
 0002:00006050       ??_C@_0O@FNPDBHEE@network?5reset@ 0000000140017050     libcpmt:syserror.obj
 0002:00006060       ??_C@_0N@POEIPGGF@not?5a?5socket@ 0000000140017060     libcpmt:syserror.obj
 0002:00006070       ??_C@_0L@PILCLIHE@__restrict@ 0000000140017070     libvcruntime:undname.obj
 0002:00006080       ??_C@_0M@MIDIAGJP@file?5exists@ 0000000140017080     libcpmt:syserror.obj
 0002:00006090       ??_C@_0BP@KAIHPOGN@connection?5already?5in?5progress@ 0000000140017090     libcpmt:syserror.obj
 0002:000060b0       ??_C@_0BG@KDKHOPCO@operation?5in?5progress@ 00000001400170b0     libcpmt:syserror.obj
 0002:000060c8       ??_C@_0BK@IMCPHCBI@no?5such?5device?5or?5address@ 00000001400170c8     libcpmt:syserror.obj
 0002:000060e8       ??_C@_0M@KGHGGJGL@bad?5address@ 00000001400170e8     libcpmt:syserror.obj
 0002:000060f8       ??_C@_0BA@ENLPPKBN@no?5such?5process@ 00000001400170f8     libcpmt:thread0.obj
 0002:00006108       ??_C@_0BB@IEPBLJHK@no?5child?5process@ 0000000140017108     libcpmt:syserror.obj
 0002:00006120       ??_C@_0P@MIGLKIOC@CorExitProcess@ 0000000140017120     libucrt:exit.obj
 0002:00006130       ??_C@_07IPNMCAN@success@   0000000140017130     libcpmt:syserror.obj
 0002:00006138       ??_C@_08JCCMCCIL@HH?3mm?3ss@ 0000000140017138     libucrt:nlsdata.obj
 0002:00006148       ??_C@_0BO@EFGOJEF@too?5many?5symbolic?5link?5levels@ 0000000140017148     libcpmt:syserror.obj
 0002:00006168       ??_C@_0P@HCOMKFCC@too?5many?5links@ 0000000140017168     libcpmt:syserror.obj
 0002:00006178       ??_C@_0BE@MKFDAFMP@no?5stream?5resources@ 0000000140017178     libcpmt:syserror.obj
 0002:00006190       ??_C@_0BO@BJBOMOEJ@resource?5deadlock?5would?5occur@ 0000000140017190     libcpmt:thread0.obj
 0002:000061b0       ??_C@_0BE@MPJPGCEO@bad?5file?5descriptor@ 00000001400171b0     libcpmt:syserror.obj
 0002:000061c8       ??_C@_08LHJFAFGD@operator@ 00000001400171c8     libvcruntime:undname.obj
 0002:000061d8       ??_C@_0BI@BNCLIGPB@executable?5format?5error@ 00000001400171d8     libcpmt:syserror.obj
 0002:000061f0       ??_C@_08GLNPIFBN@io?5error@ 00000001400171f0     libcpmt:syserror.obj
 0002:00006200       ??_C@_0P@FNPOCJBE@protocol?5error@ 0000000140017200     libcpmt:syserror.obj
 0002:00006210       ??_C@_07JJNFCEND@October@  0000000140017210     libucrt:nlsdata.obj
 0002:00006218       ??_C@_08HCHEGEOA@November@ 0000000140017218     libucrt:nlsdata.obj
 0002:00006228       ??_C@_09BHHEALKD@September@ 0000000140017228     libucrt:nlsdata.obj
 0002:00006238       ??_C@_08EDHMEBNP@December@ 0000000140017238     libucrt:nlsdata.obj
 0002:00006248       ??_C@_0N@KIIEAAIO@network?5down@ 0000000140017248     libcpmt:syserror.obj
 0002:00006258       ??_C@_0BD@EAMBFIDF@no?5protocol?5option@ 0000000140017258     libcpmt:syserror.obj
 0002:00006270       ??_C@_0BC@EOODALEL@Unknown?5exception@ 0000000140017270     aurora_runtime:memory.obj
 0002:00006288       ??_C@_0O@DPKOEFFH@bad?5exception@ 0000000140017288     libvcruntime:frame.obj
 0002:00006298       ??_C@_0CD@BNPLBMNA@inappropriate?5io?5control?5operat@ 0000000140017298     libcpmt:syserror.obj
 0002:000062c0       ??_C@_0BH@CGIMPKIM@argument?5out?5of?5domain@ 00000001400172c0     libcpmt:syserror.obj
 0002:000062d8       ??_C@_0BP@LKNGHENJ@resource?5unavailable?5try?5again@ 00000001400172d8     libcpmt:thread0.obj
 0002:000062f8       ??_C@_0BE@GHAFMPAH@too?5many?5files?5open@ 00000001400172f8     libcpmt:syserror.obj
 0002:00006310       ??_C@_0BO@HACHBEKI@too?5many?5files?5open?5in?5system@ 0000000140017310     libcpmt:syserror.obj
 0002:00006330       ??_C@_0BG@EICBIHDP@read?5only?5file?5system@ 0000000140017330     libcpmt:syserror.obj
 0002:00006348       ??_C@_0N@LGAPMMPI@not?5a?5stream@ 0000000140017348     libcpmt:syserror.obj
 0002:00006358       ??_C@_0L@JMKHOMEK@__fastcall@ 0000000140017358     libvcruntime:undname.obj
 0002:00006368       ??_C@_0L@NPHFGOKO@__thiscall@ 0000000140017368     libvcruntime:undname.obj
 0002:00006378       ??_C@_0N@BCKKPABJ@__vectorcall@ 0000000140017378     libvcruntime:undname.obj
 0002:00006388       ??_C@_09HIJEGCPM@__clrcall@ 0000000140017388     libvcruntime:undname.obj
 0002:00006398       ??_C@_09IFJBGAPI@__stdcall@ 0000000140017398     libvcruntime:undname.obj
 0002:000063a8       ??_C@_07KOLFKCDI@__cdecl@  00000001400173a8     libvcruntime:undname.obj
 0002:000063b0       ??_C@_07PLECNNKG@no?5link@ 00000001400173b0     libcpmt:syserror.obj
 0002:000063b8       ??_C@_0BC@PPHBOELF@cross?5device?5link@ 00000001400173b8     libcpmt:syserror.obj
 0002:000063d0       ??_C@_0N@OHAFKDEK@invalid?5seek@ 00000001400173d0     libcpmt:syserror.obj
 0002:000063e0       ??_C@_0BG@OEMDKMEE@operation?5would?5block@ 00000001400173e0     libcpmt:syserror.obj
 0002:000063f8       ??_C@_0BH@CAKOHOMI@argument?5list?5too?5long@ 00000001400173f8     libcpmt:syserror.obj
 0002:00006410       ??_C@_0BC@EJHOMAAK@filename?5too?5long@ 0000000140017410     libcpmt:syserror.obj
 0002:00006428       ??_C@_0N@IFLPBIOP@message?5size@ 0000000140017428     libcpmt:syserror.obj
 0002:00006438       ??_C@_0M@JCPCPOEF@FlsSetValue@ 0000000140017438     libvcruntime:winapi_downlevel.obj
 0002:00006448       ??_C@_0M@GDNOONDI@FlsGetValue@ 0000000140017448     libvcruntime:winapi_downlevel.obj
 0002:00006458       ??_C@_07FPCDHGMM@?5delete@ 0000000140017458     libvcruntime:undname.obj
 0002:00006460       ??_C@_0P@LDMLAFHI@address?5in?5use@ 0000000140017460     libcpmt:syserror.obj
 0002:00006470       ??_C@_0BE@MIEJDDNH@wrong?5protocol?5type@ 0000000140017470     libcpmt:syserror.obj
 0002:00006488       ??_C@_0M@KPHOFDBE@broken?5pipe@ 0000000140017488     libcpmt:syserror.obj
 0002:00006498       ??_C@_0BA@NAGGFLJK@__preserve_none@ 0000000140017498     libvcruntime:undname.obj
 0002:000064a8       ??_C@_0BG@MPLKFPAE@state?5not?5recoverable@ 00000001400174a8     libcpmt:syserror.obj
 0002:000064c0       ??_C@_0BG@DHPCNBJB@address?5not?5available@ 00000001400174c0     libcpmt:syserror.obj
 0002:000064d8       ??_C@_0BC@NJECKMKE@no?5lock?5available@ 00000001400174d8     libcpmt:syserror.obj
 0002:000064f0       ??_C@_0BF@PBGGPKKE@no?5message?5available@ 00000001400174f0     libcpmt:syserror.obj
 0002:00006508       ??_C@_0BB@DHFDFGDM@host?5unreachable@ 0000000140017508     libcpmt:syserror.obj
 0002:00006520       ??_C@_0BE@IFNCKGE@network?5unreachable@ 0000000140017520     libcpmt:syserror.obj
 0002:00006538       ??_C@_0BA@KGKGOOJA@value?5too?5large@ 0000000140017538     libcpmt:syserror.obj
 0002:00006548       ??_C@_0P@DNAJLBJK@file?5too?5large@ 0000000140017548     libcpmt:syserror.obj
 0002:00006558       ??_C@_0BE@GOIPJJHG@result?5out?5of?5range@ 0000000140017558     libcpmt:syserror.obj
 0002:00006570       ??_C@_0L@EDOLMPAK@no?5message@ 0000000140017570     libcpmt:syserror.obj
 0002:00006580       ??_C@_0M@PMMIEFCP@bad?5message@ 0000000140017580     libcpmt:syserror.obj
 0002:00006590       ??_C@_07PEJMOBNF@FlsFree@  0000000140017590     libvcruntime:winapi_downlevel.obj
 0002:00006598       ??_C@_0BG@CDNPAGJK@illegal?5byte?5sequence@ 0000000140017598     libcpmt:syserror.obj
 0002:000065b0       ??_C@_0BD@IJDJKDEA@no?5space?5on?5device@ 00000001400175b0     libcpmt:syserror.obj
 0002:000065c8       ??_C@_0P@FDINDDOK@no?5such?5device@ 00000001400175c8     libcpmt:syserror.obj
 0002:000065d8       ??_C@_0BA@PFFCAOFK@no?5buffer?5space@ 00000001400175d8     libcpmt:syserror.obj
 0002:000065e8       ??_C@_0CF@OJOFEIGO@AppPolicyGetProcessTerminationM@ 00000001400175e8     libucrt:winapi_thunks.obj
 0002:00006610       ??_C@_0BD@JPHBMONG@identifier?5removed@ 0000000140017610     libcpmt:syserror.obj
 0002:00006628       ??_C@_0BI@OHIEJAAB@operation?5not?5permitted@ 0000000140017628     libcpmt:thread0.obj
 0002:00006640       ??_C@_0BN@LKKBCCDB@address?5family?5not?5supported@ 0000000140017640     libcpmt:syserror.obj
 0002:00006660       ??_C@_0BH@KEFGLDAF@function?5not?5supported@ 0000000140017660     libcpmt:syserror.obj
 0002:00006678       ??_C@_0BI@LNEGIFLN@operation?5not?5supported@ 0000000140017678     libcpmt:syserror.obj
 0002:00006690       ??_C@_0BH@JPPPLHJB@protocol?5not?5supported@ 0000000140017690     libcpmt:syserror.obj
 0002:000066a8       ??_C@_0O@NHEDABJP@not?5supported@ 00000001400176a8     libcpmt:syserror.obj
 0002:000066b8       ??_C@_0BD@MGNDDEGM@connection?5aborted@ 00000001400176b8     libcpmt:syserror.obj
 0002:000066d0       ??_C@_0M@EGEKIIMP@interrupted@ 00000001400176d0     libcpmt:syserror.obj
 0002:000066e0       ??_C@_0BC@DFIBIBIL@already?5connected@ 00000001400176e0     libcpmt:syserror.obj
 0002:000066f8       ??_C@_0O@GLMIBBEG@not?5connected@ 00000001400176f8     libcpmt:syserror.obj
 0002:00006708       ??_C@_0BD@PJLIIJEL@connection?5refused@ 0000000140017708     libcpmt:syserror.obj
 0002:00006720       ??_C@_0BN@KDMIFEIP@destination?5address?5required@ 0000000140017720     libcpmt:syserror.obj
 0002:00006740       ??_C@_0M@GFIIJFMG@__unaligned@ 0000000140017740     libvcruntime:undname.obj
 0002:00006750       ??_C@_0BD@MOLBPMEA@operation?5canceled@ 0000000140017750     libcpmt:syserror.obj
 0002:00006768       ??_C@_0BC@CIJDGCDI@permission?5denied@ 0000000140017768     libcpmt:syserror.obj
 0002:00006780       ??_C@_0L@BLPOFLNJ@owner?5dead@ 0000000140017780     libcpmt:syserror.obj
 0002:00006790       ??_C@_08KNHFBNJ@FlsAlloc@  0000000140017790     libvcruntime:winapi_downlevel.obj
 0002:000067a0       ??_C@_09LBNFPBCA@?5delete?$FL?$FN@ 00000001400177a0     libvcruntime:undname.obj
 0002:000067b0       ??_C@_0BA@FHFNEAED@AreFileApisANSI@ 00000001400177b0     libucrt:winapi_thunks.obj
 0002:000067c0       ??_C@_0BB@HBDEELFH@LocaleNameToLCID@ 00000001400177c0     libucrt:winapi_thunks.obj
 0002:000067d8       ??_C@_0M@GAAIMMOH@operator?$DM?$DN?$DO@ 00000001400177d8     libvcruntime:undname.obj
 0002:000067e8       ??_C@_07JOMMBBKO@__ptr64@  00000001400177e8     libvcruntime:undname.obj
 0002:000067f0       ??_C@_09LMMOFLDE@__swift_3@ 00000001400177f0     libvcruntime:undname.obj
 0002:00006800       ??_C@_0N@MFBBDCAC@FlsGetValue2@ 0000000140017800     libucrt:winapi_thunks.obj
 0002:00006810       ??_C@_09KFNFGKHF@__swift_2@ 0000000140017810     libvcruntime:undname.obj
 0002:00006820       ??_C@_09IOPIDJLG@__swift_1@ 0000000140017820     libvcruntime:undname.obj
 0002:00006830       ??_C@_0BK@GIIJIEHP@out?5of?5memory?5?$CIAuroraStr?$CJ@ 0000000140017830     aurora_runtime:aurora_str.obj
 0002:00006850       ??_C@_0BP@BBNIMIIH@out?5of?5memory?5?$CIAuroraStr?5data?$CJ@ 0000000140017850     aurora_runtime:aurora_str.obj
 0002:00006870       ??_C@_09DHDLOLLB@restrict?$CI@ 0000000140017870     libvcruntime:undname.obj
 0002:00006880       ??_C@_08EHJDFFNH@__based?$CI@ 0000000140017880     libvcruntime:undname.obj
 0002:00006890       ??_C@_0BM@LDKODKLH@?5Base?5Class?5Descriptor?5at?5?$CI@ 0000000140017890     libvcruntime:undname.obj
 0002:000068b0       ??_C@_0BD@LGICGFMM@?5Base?5Class?5Array?8@ 00000001400178b0     libvcruntime:undname.obj
 0002:000068c8       ??_C@_0BN@MECKDCOJ@?5Class?5Hierarchy?5Descriptor?8@ 00000001400178c8     libvcruntime:undname.obj
 0002:000068e8       ??_C@_0BC@DAFEJGAK@?5Type?5Descriptor?8@ 00000001400178e8     libvcruntime:undname.obj
 0002:00006900       ??_C@_0BN@DEGPLNFK@?$GAvector?5deleting?5destructor?8@ 0000000140017900     libvcruntime:undname.obj
 0002:00006920       ??_C@_0BN@IMDCHIKM@?$GAscalar?5deleting?5destructor?8@ 0000000140017920     libvcruntime:undname.obj
 0002:00006940       ??_C@_0BD@JDLKDPAB@?$GAvbase?5destructor?8@ 0000000140017940     libvcruntime:undname.obj
 0002:00006958       ??_C@_0CD@CGAJBKEJ@?$GAvector?5copy?5constructor?5iterat@ 0000000140017958     libvcruntime:undname.obj
 0002:00006980       ??_C@_0CG@HLDDJMAG@?$GAeh?5vector?5copy?5constructor?5ite@ 0000000140017980     libvcruntime:undname.obj
 0002:000069a8       ??_C@_0CL@FGIJHLCE@?$GAmanaged?5vector?5copy?5constructo@ 00000001400179a8     libvcruntime:undname.obj
 0002:000069d8       ??_C@_0CJ@GJELGAMM@?$GAvector?5vbase?5copy?5constructor?5@ 00000001400179d8     libvcruntime:undname.obj
 0002:00006a08       ??_C@_0CM@FCBBDIGB@?$GAeh?5vector?5vbase?5copy?5construct@ 0000000140017a08     libvcruntime:undname.obj
 0002:00006a38       ??_C@_0BO@PFGOCPJJ@?$GAvector?5constructor?5iterator?8@ 0000000140017a38     libvcruntime:undname.obj
 0002:00006a58       ??_C@_0CB@JONCMFFK@?$GAeh?5vector?5constructor?5iterator@ 0000000140017a58     libvcruntime:undname.obj
 0002:00006a80       ??_C@_0CG@CFDHKGGD@?$GAmanaged?5vector?5constructor?5ite@ 0000000140017a80     libvcruntime:undname.obj
 0002:00006aa8       ??_C@_0CE@IKBNEHA@?$GAvector?5vbase?5constructor?5itera@ 0000000140017aa8     libvcruntime:undname.obj
 0002:00006ad0       ??_C@_0CH@OOJPLCPH@?$GAeh?5vector?5vbase?5constructor?5it@ 0000000140017ad0     libvcruntime:undname.obj
 0002:00006af8       ??_C@_0BN@LFPFMEDL@?$GAvector?5destructor?5iterator?8@ 0000000140017af8     libvcruntime:undname.obj
 0002:00006b18       ??_C@_0CA@GCEOPDGL@?$GAeh?5vector?5destructor?5iterator?8@ 0000000140017b18     libvcruntime:undname.obj
 0002:00006b38       ??_C@_0CF@IMGKMJNO@?$GAmanaged?5vector?5destructor?5iter@ 0000000140017b38     libvcruntime:undname.obj
 0002:00006b60       ??_C@_0BK@CFCOFLF@?5Complete?5Object?5Locator?8@ 0000000140017b60     libvcruntime:undname.obj
 0002:00006b80       ??_C@_0BL@NILFHHPC@?$GAvirtual?5displacement?5map?8@ 0000000140017b80     libvcruntime:undname.obj
 0002:00006ba0       ??_C@_07FEEIOKP@?$GAvcall?8@ 0000000140017ba0     libvcruntime:undname.obj
 0002:00006ba8       ??_C@_08OBABFOLI@?$GAstring?8@ 0000000140017ba8     libvcruntime:undname.obj
 0002:00006bb8       ??_C@_0BA@KBCDOMBN@?$GAudt?5returning?8@ 0000000140017bb8     libvcruntime:undname.obj
 0002:00006bc8       ??_C@_0P@HJKNJFNN@?$GAomni?5callsig?8@ 0000000140017bc8     libvcruntime:undname.obj
 0002:00006bd8       ??_C@_08LLFFHHDJ@?$GAtypeof?8@ 0000000140017bd8     libvcruntime:undname.obj
 0002:00006be8       ??_C@_0BL@LLKPOHJI@?$GAcopy?5constructor?5closure?8@ 0000000140017be8     libvcruntime:undname.obj
 0002:00006c08       ??_C@_0BO@OBMKPJIG@?$GAdefault?5constructor?5closure?8@ 0000000140017c08     libvcruntime:undname.obj
 0002:00006c28       ??_C@_0CE@IIHCMGGL@?$GAlocal?5vftable?5constructor?5clos@ 0000000140017c28     libvcruntime:undname.obj
 0002:00006c50       ??_C@_0BL@CNOONJFP@?$GAplacement?5delete?5closure?8@ 0000000140017c50     libvcruntime:undname.obj
 0002:00006c70       ??_C@_0BN@CKNJLHMB@?$GAplacement?5delete?$FL?$FN?5closure?8@ 0000000140017c70     libvcruntime:undname.obj
 0002:00006c90       ??_C@_09IFPLHPGF@?$GAvftable?8@ 0000000140017c90     libvcruntime:undname.obj
 0002:00006ca0       ??_C@_0BA@KKLDJDLB@?$GAlocal?5vftable?8@ 0000000140017ca0     libvcruntime:undname.obj
 0002:00006cb0       ??_C@_09BLBHBJP@?$GAvbtable?8@ 0000000140017cb0     libvcruntime:undname.obj
 0002:00006cc0       ??_C@_0BG@JNJLAMPM@?$GAanonymous?5namespace?8@ 0000000140017cc0     libvcruntime:undname.obj
 0002:00006cd8       ??_C@_0BM@PMGGMLDN@?$GAlocal?5static?5thread?5guard?8@ 0000000140017cd8     libvcruntime:undname.obj
 0002:00006cf8       ??_C@_0BF@KDPPACIK@?$GAlocal?5static?5guard?8@ 0000000140017cf8     libvcruntime:undname.obj
 0002:00006d10       ??_C@_0CB@PDBIFEP@?$GAdynamic?5atexit?5destructor?5for?5@ 0000000140017d10     libvcruntime:undname.obj
 0002:00006d38       ??_C@_0BL@CLIPGLGB@?$GAdynamic?5initializer?5for?5?8@ 0000000140017d38     libvcruntime:undname.obj
 0002:00006d58       ??_C@_07HIOPEPIO@PANIC?3?5@ 0000000140017d58     aurora_runtime:io.obj
 0002:00006d60       ??_C@_0N@BDNMDMOL@operator?5?$CC?$CC?5@ 0000000140017d60     libvcruntime:undname.obj
 0002:00006d70       ??_C@_1M@KPPKEPBO@?$AAe?$AAn?$AA?9?$AAn?$AAz@ 0000000140017d70     libucrt:lcidtoname_downlevel.obj
 0002:00006d80       ??_C@_1M@ELCKCCJJ@?$AAm?$AAi?$AA?9?$AAn?$AAz@ 0000000140017d80     libucrt:lcidtoname_downlevel.obj
 0002:00006d90       ??_C@_1M@PACPMGPH@?$AAk?$AAk?$AA?9?$AAk?$AAz@ 0000000140017d90     libucrt:lcidtoname_downlevel.obj
 0002:00006da0       ??_C@_1M@DAPFDGGB@?$AAa?$AAr?$AA?9?$AAd?$AAz@ 0000000140017da0     libucrt:lcidtoname_downlevel.obj
 0002:00006db0       ??_C@_1M@COAJPDHI@?$AAc?$AAs?$AA?9?$AAc?$AAz@ 0000000140017db0     libucrt:lcidtoname_downlevel.obj
 0002:00006dc0       ??_C@_1M@NIDIIPGF@?$AAe?$AAn?$AA?9?$AAb?$AAz@ 0000000140017dc0     libucrt:lcidtoname_downlevel.obj
 0002:00006dd0       ??_C@_1CI@KNAKOEBC@?$AAd?$AAd?$AAd?$AAd?$AA?0?$AA?5?$AAM?$AAM?$AAM?$AAM?$AA?5?$AAd?$AAd?$AA?0?$AA?5@ 0000000140017dd0     libucrt:nlsdata.obj
 0002:00006df8       ??_C@_1BC@IEBCMHCM@?$AAM?$AAM?$AA?1?$AAd?$AAd?$AA?1?$AAy?$AAy@ 0000000140017df8     libucrt:nlsdata.obj
 0002:00006e10       ??_C@_1M@GAOBIPA@?$AAe?$AAs?$AA?9?$AAu?$AAy@ 0000000140017e10     libucrt:lcidtoname_downlevel.obj
 0002:00006e20       ??_C@_1O@KOHBJJI@?$AAs?$AAy?$AAr?$AA?9?$AAs?$AAy@ 0000000140017e20     libucrt:lcidtoname_downlevel.obj
 0002:00006e30       ??_C@_1M@DMJDKLKM@?$AAa?$AAr?$AA?9?$AAs?$AAy@ 0000000140017e30     libucrt:lcidtoname_downlevel.obj
 0002:00006e40       ??_C@_1BC@JGDDFFAM@?$AAF?$AAe?$AAb?$AAr?$AAu?$AAa?$AAr?$AAy@ 0000000140017e40     libucrt:nlsdata.obj
 0002:00006e58       ??_C@_1BA@EFMEIEBA@?$AAJ?$AAa?$AAn?$AAu?$AAa?$AAr?$AAy@ 0000000140017e58     libucrt:nlsdata.obj
 0002:00006e68       ??_C@_1M@FGMDIJED@?$AAe?$AAs?$AA?9?$AAp?$AAy@ 0000000140017e68     libucrt:lcidtoname_downlevel.obj
 0002:00006e78       ??_C@_1M@OPIHOOPI@?$AAm?$AAs?$AA?9?$AAm?$AAy@ 0000000140017e78     libucrt:lcidtoname_downlevel.obj
 0002:00006e88       ??_C@_19BIFMLPCD@?$AAJ?$AAu?$AAl?$AAy@ 0000000140017e88     libucrt:nlsdata.obj
 0002:00006e98       ??_C@_1M@MOBDBLOC@?$AAa?$AAr?$AA?9?$AAl?$AAy@ 0000000140017e98     libucrt:lcidtoname_downlevel.obj
 0002:00006ea8       ??_C@_1M@EGPFDCPD@?$AAb?$AAe?$AA?9?$AAb?$AAy@ 0000000140017ea8     libucrt:lcidtoname_downlevel.obj
 0002:00006eb8       ??_C@_1BC@HHMNLIHE@?$AAT?$AAh?$AAu?$AAr?$AAs?$AAd?$AAa?$AAy@ 0000000140017eb8     libucrt:nlsdata.obj
 0002:00006ed0       ??_C@_1BA@ENFBFFEK@?$AAT?$AAu?$AAe?$AAs?$AAd?$AAa?$AAy@ 0000000140017ed0     libucrt:nlsdata.obj
 0002:00006ee0       ??_C@_1BE@EBOGMDOH@?$AAW?$AAe?$AAd?$AAn?$AAe?$AAs?$AAd?$AAa?$AAy@ 0000000140017ee0     libucrt:nlsdata.obj
 0002:00006ef8       ??_C@_1BC@ENMNNPAJ@?$AAS?$AAa?$AAt?$AAu?$AAr?$AAd?$AAa?$AAy@ 0000000140017ef8     libucrt:nlsdata.obj
 0002:00006f10       ??_C@_1O@IHNHDHPB@?$AAS?$AAu?$AAn?$AAd?$AAa?$AAy@ 0000000140017f10     libucrt:nlsdata.obj
 0002:00006f20       ??_C@_1O@MMNBFLIA@?$AAM?$AAo?$AAn?$AAd?$AAa?$AAy@ 0000000140017f20     libucrt:nlsdata.obj
 0002:00006f30       ??_C@_1O@PDICJHAG@?$AAF?$AAr?$AAi?$AAd?$AAa?$AAy@ 0000000140017f30     libucrt:nlsdata.obj
 0002:00006f40       ??_C@_17PNNKMEED@?$AAM?$AAa?$AAy@ 0000000140017f40     libucrt:nlsdata.obj
 0002:00006f48       ??_C@_1M@FBDHPPGD@?$AAe?$AAs?$AA?9?$AAm?$AAx@ 0000000140017f48     libucrt:lcidtoname_downlevel.obj
 0002:00006f58       ??_C@_1M@MFNHNHEO@?$AAe?$AAn?$AA?9?$AAz?$AAw@ 0000000140017f58     libucrt:lcidtoname_downlevel.obj
 0002:00006f68       ??_C@_1M@IMEPLEPE@?$AAz?$AAh?$AA?9?$AAt?$AAw@ 0000000140017f68     libucrt:lcidtoname_downlevel.obj
 0002:00006f78       ??_C@_1M@DDMJFMGJ@?$AAa?$AAr?$AA?9?$AAk?$AAw@ 0000000140017f78     libucrt:lcidtoname_downlevel.obj
 0002:00006f88       ??_C@_1M@IIDEOLLL@?$AAe?$AAs?$AA?9?$AAs?$AAv@ 0000000140017f88     libucrt:lcidtoname_downlevel.obj
 0002:00006f98       ??_C@_17BBDMLCIG@?$AAN?$AAo?$AAv@ 0000000140017f98     libucrt:nlsdata.obj
 0002:00006fa0       ??_C@_1O@GNNELBAP@?$AAd?$AAi?$AAv?$AA?9?$AAm?$AAv@ 0000000140017fa0     libucrt:lcidtoname_downlevel.obj
 0002:00006fb0       ??_C@_1M@BDEKKCA@?$AAl?$AAv?$AA?9?$AAl?$AAv@ 0000000140017fb0     libucrt:lcidtoname_downlevel.obj
 0002:00006fc0       ??_C@_17KPNDCPAF@?$AAd?$AAi?$AAv@ 0000000140017fc0     libucrt:lcidtoname_downlevel.obj
 0002:00006fc8       ??_C@_1M@CEEDODME@?$AAr?$AAu?$AA?9?$AAr?$AAu@ 0000000140017fc8     libucrt:lcidtoname_downlevel.obj
 0002:00006fd8       ??_C@_1M@CELMCNBK@?$AAt?$AAt?$AA?9?$AAr?$AAu@ 0000000140017fd8     libucrt:lcidtoname_downlevel.obj
 0002:00006fe8       ??_C@_1M@PAFNENNF@?$AAf?$AAr?$AA?9?$AAl?$AAu@ 0000000140017fe8     libucrt:lcidtoname_downlevel.obj
 0002:00006ff8       ??_C@_1M@NJBEEJNL@?$AAd?$AAe?$AA?9?$AAl?$AAu@ 0000000140017ff8     libucrt:lcidtoname_downlevel.obj
 0002:00007008       ??_C@_17PDPHAADD@?$AAT?$AAh?$AAu@ 0000000140018008     libucrt:nlsdata.obj
 0002:00007010       ??_C@_1M@GACBMHKE@?$AAh?$AAu?$AA?9?$AAh?$AAu@ 0000000140018010     libucrt:lcidtoname_downlevel.obj
 0002:00007020       ??_C@_1M@GMPONJN@?$AAe?$AAn?$AA?9?$AAa?$AAu@ 0000000140018020     libucrt:lcidtoname_downlevel.obj
 0002:00007030       ??_C@_1M@ONGIBJNA@?$AAe?$AAn?$AA?9?$AAt?$AAt@ 0000000140018030     libucrt:lcidtoname_downlevel.obj
 0002:00007040       ??_C@_1O@PAHLKOAC@?$AAA?$AAu?$AAg?$AAu?$AAs?$AAt@ 0000000140018040     libucrt:nlsdata.obj
 0002:00007050       ??_C@_1M@NCMONAAL@?$AAp?$AAt?$AA?9?$AAp?$AAt@ 0000000140018050     libucrt:lcidtoname_downlevel.obj
 0002:00007060       ??_C@_1M@PPDBCNFM@?$AAm?$AAt?$AA?9?$AAm?$AAt@ 0000000140018060     libucrt:lcidtoname_downlevel.obj
 0002:00007070       ??_C@_1M@KPMILCJG@?$AAl?$AAt?$AA?9?$AAl?$AAt@ 0000000140018070     libucrt:lcidtoname_downlevel.obj
 0002:00007080       ??_C@_1M@GHKGFEDF@?$AAi?$AAt?$AA?9?$AAi?$AAt@ 0000000140018080     libucrt:lcidtoname_downlevel.obj
 0002:00007090       ??_C@_1O@NMHPGANE@?$AAz?$AAh?$AA?9?$AAc?$AAh?$AAt@ 0000000140018090     libucrt:lcidtoname_downlevel.obj
 0002:000070a0       ??_C@_1M@LKHKGDLN@?$AAe?$AAs?$AA?9?$AAg?$AAt@ 00000001400180a0     libucrt:lcidtoname_downlevel.obj
 0002:000070b0       ??_C@_17FNLKOI@?$AAO?$AAc?$AAt@ 00000001400180b0     libucrt:nlsdata.obj
 0002:000070b8       ??_C@_17GGIBDPIH@?$AAS?$AAa?$AAt@ 00000001400180b8     libucrt:nlsdata.obj
 0002:000070c0       ??_C@_1M@NNDGDNGA@?$AAd?$AAe?$AA?9?$AAa?$AAt@ 00000001400180c0     libucrt:lcidtoname_downlevel.obj
 0002:000070d0       ??_C@_1M@LLODPCMM@?$AAe?$AAn?$AA?9?$AAu?$AAs@ 00000001400180d0     libucrt:lcidtoname_downlevel.obj
 0002:000070e0       ??_C@_1BC@GDGBMEMK@?$AAH?$AAH?$AA?3?$AAm?$AAm?$AA?3?$AAs?$AAs@ 00000001400180e0     libucrt:nlsdata.obj
 0002:000070f8       ??_C@_1M@BIKNHHPF@?$AAi?$AAs?$AA?9?$AAi?$AAs@ 00000001400180f8     libucrt:lcidtoname_downlevel.obj
 0002:00007108       ??_C@_1O@EBKIFIGN@?$AAz?$AAh?$AA?9?$AAc?$AAh?$AAs@ 0000000140018108     libucrt:lcidtoname_downlevel.obj
 0002:00007118       ??_C@_1M@GHHLIKEI@?$AAe?$AAu?$AA?9?$AAe?$AAs@ 0000000140018118     libucrt:lcidtoname_downlevel.obj
 0002:00007128       ??_C@_1M@GKGFPKAP@?$AAe?$AAs?$AA?9?$AAe?$AAs@ 0000000140018128     libucrt:lcidtoname_downlevel.obj
 0002:00007138       ??_C@_1M@FAPLLOPF@?$AAg?$AAl?$AA?9?$AAe?$AAs@ 0000000140018138     libucrt:lcidtoname_downlevel.obj
 0002:00007148       ??_C@_1M@KGADAODK@?$AAc?$AAa?$AA?9?$AAe?$AAs@ 0000000140018148     libucrt:lcidtoname_downlevel.obj
 0002:00007158       ??_C@_17FFBJICPL@?$AAs?$AAy?$AAr@ 0000000140018158     libucrt:lcidtoname_downlevel.obj
 0002:00007160       ??_C@_1M@GCCMIGPJ@?$AAt?$AAr?$AA?9?$AAt?$AAr@ 0000000140018160     libucrt:lcidtoname_downlevel.obj
 0002:00007170       ??_C@_17LFPOIHDD@?$AAA?$AAp?$AAr@ 0000000140018170     libucrt:nlsdata.obj
 0002:00007178       ??_C@_1M@IBMCAOEC@?$AAe?$AAs?$AA?9?$AAp?$AAr@ 0000000140018178     libucrt:lcidtoname_downlevel.obj
 0002:00007188       ??_C@_1M@DMHAEOGC@?$AAk?$AAo?$AA?9?$AAk?$AAr@ 0000000140018188     libucrt:lcidtoname_downlevel.obj
 0002:00007198       ??_C@_1M@PBNONODE@?$AAf?$AAa?$AA?9?$AAi?$AAr@ 0000000140018198     libucrt:lcidtoname_downlevel.obj
 0002:000071a8       ??_C@_1M@BPCKOEGE@?$AAh?$AAr?$AA?9?$AAh?$AAr@ 00000001400181a8     libucrt:lcidtoname_downlevel.obj
 0002:000071b8       ??_C@_1M@EJLEOGAE@?$AAe?$AAl?$AA?9?$AAg?$AAr@ 00000001400181b8     libucrt:lcidtoname_downlevel.obj
 0002:000071c8       ??_C@_1M@MMBBFGAK@?$AAf?$AAr?$AA?9?$AAf?$AAr@ 00000001400181c8     libucrt:lcidtoname_downlevel.obj
 0002:000071d8       ??_C@_1BA@EPANDLNG@?$AAO?$AAc?$AAt?$AAo?$AAb?$AAe?$AAr@ 00000001400181d8     libucrt:nlsdata.obj
 0002:000071e8       ??_C@_1BC@BGLIFPF@?$AAN?$AAo?$AAv?$AAe?$AAm?$AAb?$AAe?$AAr@ 00000001400181e8     libucrt:nlsdata.obj
 0002:00007200       ??_C@_1BE@DKAAMBJL@?$AAS?$AAe?$AAp?$AAt?$AAe?$AAm?$AAb?$AAe?$AAr@ 0000000140018200     libucrt:nlsdata.obj
 0002:00007218       ??_C@_1BC@FEMKIFH@?$AAD?$AAe?$AAc?$AAe?$AAm?$AAb?$AAe?$AAr@ 0000000140018218     libucrt:nlsdata.obj
 0002:00007230       ??_C@_1M@EIAHOHH@?$AAe?$AAs?$AA?9?$AAc?$AAr@ 0000000140018230     libucrt:lcidtoname_downlevel.obj
 0002:00007240       ??_C@_1M@LJLLCMEH@?$AAp?$AAt?$AA?9?$AAb?$AAr@ 0000000140018240     libucrt:lcidtoname_downlevel.obj
 0002:00007250       ??_C@_17CKNLEDEC@?$AAM?$AAa?$AAr@ 0000000140018250     libucrt:nlsdata.obj
 0002:00007258       ??_C@_1M@EJEINPHM@?$AAe?$AAs?$AA?9?$AAa?$AAr@ 0000000140018258     libucrt:lcidtoname_downlevel.obj
 0002:00007268       ??_C@_1M@FLGKKCLO@?$AAa?$AAr?$AA?9?$AAi?$AAq@ 0000000140018268     libucrt:lcidtoname_downlevel.obj
 0002:00007278       ??_C@_1M@NIEJCJJA@?$AAj?$AAa?$AA?9?$AAj?$AAp@ 0000000140018278     libucrt:lcidtoname_downlevel.obj
 0002:00007288       ??_C@_17HCHCOKMG@?$AAS?$AAe?$AAp@ 0000000140018288     libucrt:nlsdata.obj
 0002:00007290       ??_C@_1M@CLGLEFBO@?$AAr?$AAo?$AA?9?$AAr?$AAo@ 0000000140018290     libucrt:lcidtoname_downlevel.obj
 0002:000072a0       ??_C@_1M@LJKPEMLN@?$AAn?$AAn?$AA?9?$AAn?$AAo@ 00000001400182a0     libucrt:lcidtoname_downlevel.obj
 0002:000072b0       ??_C@_1O@PLLKBHAB@?$AAs?$AAm?$AAj?$AA?9?$AAn?$AAo@ 00000001400182b0     libucrt:lcidtoname_downlevel.obj
 0002:000072c0       ??_C@_1M@NDPIFLFI@?$AAs?$AAe?$AA?9?$AAn?$AAo@ 00000001400182c0     libucrt:lcidtoname_downlevel.obj
 0002:000072d0       ??_C@_1M@KDJDKMDD@?$AAn?$AAb?$AA?9?$AAn?$AAo@ 00000001400182d0     libucrt:lcidtoname_downlevel.obj
 0002:000072e0       ??_C@_1O@DFKOMPG@?$AAs?$AAm?$AAa?$AA?9?$AAn?$AAo@ 00000001400182e0     libucrt:lcidtoname_downlevel.obj
 0002:000072f0       ??_C@_1M@DNDLJINH@?$AAz?$AAh?$AA?9?$AAm?$AAo@ 00000001400182f0     libucrt:lcidtoname_downlevel.obj
 0002:00007300       ??_C@_1M@GNDIPALM@?$AAa?$AAr?$AA?9?$AAj?$AAo@ 0000000140018300     libucrt:lcidtoname_downlevel.obj
 0002:00007310       ??_C@_1M@LMDCNDBA@?$AAf?$AAo?$AA?9?$AAf?$AAo@ 0000000140018310     libucrt:lcidtoname_downlevel.obj
 0002:00007320       ??_C@_1M@LLPGMBIN@?$AAe?$AAs?$AA?9?$AAd?$AAo@ 0000000140018320     libucrt:lcidtoname_downlevel.obj
 0002:00007330       ??_C@_1M@KGPDPBDF@?$AAe?$AAs?$AA?9?$AAc?$AAo@ 0000000140018330     libucrt:lcidtoname_downlevel.obj
 0002:00007340       ??_C@_1O@EAKMAJDN@?$AAq?$AAu?$AAz?$AA?9?$AAb?$AAo@ 0000000140018340     libucrt:lcidtoname_downlevel.obj
 0002:00007350       ??_C@_1M@GNKPCCJA@?$AAe?$AAs?$AA?9?$AAb?$AAo@ 0000000140018350     libucrt:lcidtoname_downlevel.obj
 0002:00007360       ??_C@_1M@GFOCLFF@?$AAv?$AAi?$AA?9?$AAv?$AAn@ 0000000140018360     libucrt:lcidtoname_downlevel.obj
 0002:00007370       ??_C@_17MBGCMIPB@?$AAS?$AAu?$AAn@ 0000000140018370     libucrt:nlsdata.obj
 0002:00007378       ??_C@_17KCJGOCPB@?$AAJ?$AAu?$AAn@ 0000000140018378     libucrt:nlsdata.obj
 0002:00007380       ??_C@_1BG@EGGKJILM@?$AAu?$AAz?$AA?9?$AAu?$AAz?$AA?9?$AAl?$AAa?$AAt?$AAn@ 0000000140018380     libucrt:lcidtoname_downlevel.obj
 0002:00007398       ??_C@_1BG@IBCKDDOE@?$AAa?$AAz?$AA?9?$AAa?$AAz?$AA?9?$AAl?$AAa?$AAt?$AAn@ 0000000140018398     libucrt:lcidtoname_downlevel.obj
 0002:000073b0       ??_C@_1BG@CIOGKHPB@?$AAs?$AAr?$AA?9?$AAs?$AAp?$AA?9?$AAl?$AAa?$AAt?$AAn@ 00000001400183b0     libucrt:lcidtoname_downlevel.obj
 0002:000073c8       ??_C@_1BG@EAKMMACD@?$AAb?$AAs?$AA?9?$AAb?$AAa?$AA?9?$AAl?$AAa?$AAt?$AAn@ 00000001400183c8     libucrt:lcidtoname_downlevel.obj
 0002:000073e0       ??_C@_1BG@JLBENFOE@?$AAs?$AAr?$AA?9?$AAb?$AAa?$AA?9?$AAl?$AAa?$AAt?$AAn@ 00000001400183e0     libucrt:lcidtoname_downlevel.obj
 0002:000073f8       ??_C@_1BG@NDGMJIMJ@?$AAu?$AAz?$AA?9?$AAU?$AAZ?$AA?9?$AAL?$AAa?$AAt?$AAn@ 00000001400183f8     libucrt:lcidtoname_downlevel.obj
 0002:00007410       ??_C@_1BG@BECMDDJB@?$AAa?$AAz?$AA?9?$AAA?$AAZ?$AA?9?$AAL?$AAa?$AAt?$AAn@ 0000000140018410     libucrt:lcidtoname_downlevel.obj
 0002:00007428       ??_C@_1BG@LNOAKHIE@?$AAs?$AAr?$AA?9?$AAS?$AAP?$AA?9?$AAL?$AAa?$AAt?$AAn@ 0000000140018428     libucrt:lcidtoname_downlevel.obj
 0002:00007440       ??_C@_1BG@NFKKMAFG@?$AAb?$AAs?$AA?9?$AAB?$AAA?$AA?9?$AAL?$AAa?$AAt?$AAn@ 0000000140018440     libucrt:lcidtoname_downlevel.obj
 0002:00007458       ??_C@_1BG@OBCNFJB@?$AAs?$AAr?$AA?9?$AAB?$AAA?$AA?9?$AAL?$AAa?$AAt?$AAn@ 0000000140018458     libucrt:lcidtoname_downlevel.obj
 0002:00007470       ??_C@_1M@OMFIPEDC@?$AAa?$AAr?$AA?9?$AAt?$AAn@ 0000000140018470     libucrt:lcidtoname_downlevel.obj
 0002:00007480       ??_C@_17KBOMKBF@?$AAM?$AAo?$AAn@ 0000000140018480     libucrt:nlsdata.obj
 0002:00007488       ??_C@_1M@PABJILIG@?$AAm?$AAn?$AA?9?$AAm?$AAn@ 0000000140018488     libucrt:lcidtoname_downlevel.obj
 0002:00007498       ??_C@_1M@FOPBFLOO@?$AAg?$AAu?$AA?9?$AAi?$AAn@ 0000000140018498     libucrt:lcidtoname_downlevel.obj
 0002:000074a8       ??_C@_1M@FGBKKIPG@?$AAm?$AAr?$AA?9?$AAi?$AAn@ 00000001400184a8     libucrt:lcidtoname_downlevel.obj
 0002:000074b8       ??_C@_1M@IELFGMHA@?$AAk?$AAn?$AA?9?$AAi?$AAn@ 00000001400184b8     libucrt:lcidtoname_downlevel.obj
 0002:000074c8       ??_C@_1M@BJBMFGOB@?$AAb?$AAn?$AA?9?$AAi?$AAn@ 00000001400184c8     libucrt:lcidtoname_downlevel.obj
 0002:000074d8       ??_C@_1M@GPHNBJKN@?$AAm?$AAl?$AA?9?$AAi?$AAn@ 00000001400184d8     libucrt:lcidtoname_downlevel.obj
 0002:000074e8       ??_C@_1O@IBBJHCH@?$AAk?$AAo?$AAk?$AA?9?$AAi?$AAn@ 00000001400184e8     libucrt:lcidtoname_downlevel.obj
 0002:000074f8       ??_C@_1M@BBPHKFPJ@?$AAh?$AAi?$AA?9?$AAi?$AAn@ 00000001400184f8     libucrt:lcidtoname_downlevel.obj
 0002:00007508       ??_C@_1M@CNJOFAK@?$AAt?$AAe?$AA?9?$AAi?$AAn@ 0000000140018508     libucrt:lcidtoname_downlevel.obj
 0002:00007518       ??_C@_1M@LDCEFHA@?$AAt?$AAa?$AA?9?$AAi?$AAn@ 0000000140018518     libucrt:lcidtoname_downlevel.obj
 0002:00007528       ??_C@_1M@HPKKKMPP@?$AAs?$AAa?$AA?9?$AAi?$AAn@ 0000000140018528     libucrt:lcidtoname_downlevel.obj
 0002:00007538       ??_C@_1M@IDEHOAP@?$AAp?$AAa?$AA?9?$AAi?$AAn@ 0000000140018538     libucrt:lcidtoname_downlevel.obj
 0002:00007548       ??_C@_1M@HEIIGGJD@?$AAe?$AAs?$AA?9?$AAh?$AAn@ 0000000140018548     libucrt:lcidtoname_downlevel.obj
 0002:00007558       ??_C@_1M@LPINJOMC@?$AAz?$AAh?$AA?9?$AAc?$AAn@ 0000000140018558     libucrt:lcidtoname_downlevel.obj
 0002:00007568       ??_C@_1M@NDBPDDAL@?$AAm?$AAs?$AA?9?$AAb?$AAn@ 0000000140018568     libucrt:lcidtoname_downlevel.obj
 0002:00007578       ??_C@_17DKNBKCHM@?$AAJ?$AAa?$AAn@ 0000000140018578     libucrt:nlsdata.obj
 0002:00007580       ??_C@_1M@JHPMKJIE@?$AAa?$AAr?$AA?9?$AAo?$AAm@ 0000000140018580     libucrt:lcidtoname_downlevel.obj
 0002:00007590       ??_C@_1M@PJKFGCCO@?$AAe?$AAn?$AA?9?$AAj?$AAm@ 0000000140018590     libucrt:lcidtoname_downlevel.obj
 0002:000075a0       ??_C@_1M@MILPAJJC@?$AAh?$AAy?$AA?9?$AAa?$AAm@ 00000001400185a0     libucrt:lcidtoname_downlevel.obj
 0002:000075b0       ??_C@_17IJPCKHK@?$AAJ?$AAu?$AAl@ 00000001400185b0     libucrt:nlsdata.obj
 0002:000075b8       ??_C@_1BG@GEGPMCDJ@?$AAu?$AAz?$AA?9?$AAu?$AAz?$AA?9?$AAc?$AAy?$AAr?$AAl@ 00000001400185b8     libucrt:lcidtoname_downlevel.obj
 0002:000075d0       ??_C@_1BG@KDCPGJGB@?$AAa?$AAz?$AA?9?$AAa?$AAz?$AA?9?$AAc?$AAy?$AAr?$AAl@ 00000001400185d0     libucrt:lcidtoname_downlevel.obj
 0002:000075e8       ??_C@_1BG@KODPNHE@?$AAs?$AAr?$AA?9?$AAs?$AAp?$AA?9?$AAc?$AAy?$AAr?$AAl@ 00000001400185e8     libucrt:lcidtoname_downlevel.obj
 0002:00007600       ??_C@_1BG@LJBBIPGB@?$AAs?$AAr?$AA?9?$AAb?$AAa?$AA?9?$AAc?$AAy?$AAr?$AAl@ 0000000140018600     libucrt:lcidtoname_downlevel.obj
 0002:00007618       ??_C@_1BG@PBGJMCEM@?$AAu?$AAz?$AA?9?$AAU?$AAZ?$AA?9?$AAC?$AAy?$AAr?$AAl@ 0000000140018618     libucrt:lcidtoname_downlevel.obj
 0002:00007630       ??_C@_1BG@DGCJGJBE@?$AAa?$AAz?$AA?9?$AAA?$AAZ?$AA?9?$AAC?$AAy?$AAr?$AAl@ 0000000140018630     libucrt:lcidtoname_downlevel.obj
 0002:00007648       ??_C@_1BG@JPOFPNAB@?$AAs?$AAr?$AA?9?$AAS?$AAP?$AA?9?$AAC?$AAy?$AAr?$AAl@ 0000000140018648     libucrt:lcidtoname_downlevel.obj
 0002:00007660       ??_C@_1BG@CMBHIPBE@?$AAs?$AAr?$AA?9?$AAB?$AAA?$AA?9?$AAC?$AAy?$AAr?$AAl@ 0000000140018660     libucrt:lcidtoname_downlevel.obj
 0002:00007678       ??_C@_1M@HDBKGOGH@?$AAp?$AAl?$AA?9?$AAp?$AAl@ 0000000140018678     libucrt:lcidtoname_downlevel.obj
 0002:00007688       ??_C@_1M@KPOPDDGO@?$AAn?$AAl?$AA?9?$AAn?$AAl@ 0000000140018688     libucrt:lcidtoname_downlevel.obj
 0002:00007698       ??_C@_1M@OAIMIKLP@?$AAn?$AAt?$AAd?$AAl?$AAl@ 0000000140018698     libucrt:winapi_thunks.obj
 0002:000076a8       ??_C@_1BI@BGOHAHKC@?$AAm?$AAs?$AAc?$AAo?$AAr?$AAe?$AAe?$AA?4?$AAd?$AAl?$AAl@ 00000001400186a8     libucrt:exit.obj
 0002:000076c0       ??_C@_1M@GJNLMHFD@?$AAA?$AAp?$AAr?$AAi?$AAl@ 00000001400186c0     libucrt:nlsdata.obj
 0002:000076d0       ??_C@_1M@KBMCINPM@?$AAh?$AAe?$AA?9?$AAi?$AAl@ 00000001400186d0     libucrt:lcidtoname_downlevel.obj
 0002:000076e0       ??_C@_1M@LEEGFONL@?$AAe?$AAs?$AA?9?$AAc?$AAl@ 00000001400186e0     libucrt:lcidtoname_downlevel.obj
 0002:000076f0       ??_C@_1M@BOFOGHPB@?$AAs?$AAq?$AA?9?$AAa?$AAl@ 00000001400186f0     libucrt:lcidtoname_downlevel.obj
 0002:00007700       ??_C@_1M@PNBLONPJ@?$AAs?$AAk?$AA?9?$AAs?$AAk@ 0000000140018700     libucrt:lcidtoname_downlevel.obj
 0002:00007710       ??_C@_1M@EPAJJAJF@?$AAu?$AAr?$AA?9?$AAp?$AAk@ 0000000140018710     libucrt:lcidtoname_downlevel.obj
 0002:00007720       ??_C@_17CNJFBPG@?$AAk?$AAo?$AAk@ 0000000140018720     libucrt:lcidtoname_downlevel.obj
 0002:00007728       ??_C@_1M@CBOOLAPA@?$AAm?$AAk?$AA?9?$AAm?$AAk@ 0000000140018728     libucrt:lcidtoname_downlevel.obj
 0002:00007738       ??_C@_1M@OCJEJODD@?$AAz?$AAh?$AA?9?$AAh?$AAk@ 0000000140018738     libucrt:lcidtoname_downlevel.obj
 0002:00007748       ??_C@_1M@IMGKELGA@?$AAd?$AAa?$AA?9?$AAd?$AAk@ 0000000140018748     libucrt:lcidtoname_downlevel.obj
 0002:00007758       ??_C@_1M@LFMODOAL@?$AAs?$AAl?$AA?9?$AAs?$AAi@ 0000000140018758     libucrt:lcidtoname_downlevel.obj
 0002:00007768       ??_C@_17HFOLPPLP@?$AAF?$AAr?$AAi@ 0000000140018768     libucrt:nlsdata.obj
 0002:00007770       ??_C@_1M@DPAGLNDH@?$AAe?$AAs?$AA?9?$AAn?$AAi@ 0000000140018770     libucrt:lcidtoname_downlevel.obj
 0002:00007780       ??_C@_1M@MDNLKBPM@?$AAd?$AAe?$AA?9?$AAl?$AAi@ 0000000140018780     libucrt:lcidtoname_downlevel.obj
 0002:00007790       ??_C@_1M@NGFJLMAC@?$AAs?$AAv?$AA?9?$AAf?$AAi@ 0000000140018790     libucrt:lcidtoname_downlevel.obj
 0002:000077a0       ??_C@_1O@OJDJGAJC@?$AAs?$AAm?$AAs?$AA?9?$AAf?$AAi@ 00000001400187a0     libucrt:lcidtoname_downlevel.obj
 0002:000077b0       ??_C@_1O@DLGJGKMK@?$AAs?$AAm?$AAn?$AA?9?$AAf?$AAi@ 00000001400187b0     libucrt:lcidtoname_downlevel.obj
 0002:000077c0       ??_C@_1M@JEEHPMIL@?$AAf?$AAi?$AA?9?$AAf?$AAi@ 00000001400187c0     libucrt:lcidtoname_downlevel.obj
 0002:000077d0       ??_C@_1M@BKMAIGOJ@?$AAs?$AAe?$AA?9?$AAf?$AAi@ 00000001400187d0     libucrt:lcidtoname_downlevel.obj
 0002:000077e0       ??_C@_1M@GNAECACD@?$AAt?$AAh?$AA?9?$AAt?$AAh@ 00000001400187e0     libucrt:lcidtoname_downlevel.obj
 0002:000077f0       ??_C@_1M@GMDGLDOB@?$AAe?$AAn?$AA?9?$AAp?$AAh@ 00000001400187f0     libucrt:lcidtoname_downlevel.obj
 0002:00007800       ??_C@_1M@IKEENEDF@?$AAM?$AAa?$AAr?$AAc?$AAh@ 0000000140018800     libucrt:nlsdata.obj
 0002:00007810       ??_C@_1M@NMPCJPHE@?$AAi?$AAt?$AA?9?$AAc?$AAh@ 0000000140018810     libucrt:lcidtoname_downlevel.obj
 0002:00007820       ??_C@_1M@KDHIHAEC@?$AAf?$AAr?$AA?9?$AAc?$AAh@ 0000000140018820     libucrt:lcidtoname_downlevel.obj
 0002:00007830       ??_C@_1M@IKDBHEEM@?$AAd?$AAe?$AA?9?$AAc?$AAh@ 0000000140018830     libucrt:lcidtoname_downlevel.obj
 0002:00007840       ??_C@_1M@BMLMEKGI@?$AAa?$AAr?$AA?9?$AAb?$AAh@ 0000000140018840     libucrt:lcidtoname_downlevel.obj
 0002:00007850       ??_C@_17ICPELBCN@?$AAA?$AAu?$AAg@ 0000000140018850     libucrt:nlsdata.obj
 0002:00007858       ??_C@_1M@MBFDNDND@?$AAz?$AAh?$AA?9?$AAs?$AAg@ 0000000140018858     libucrt:lcidtoname_downlevel.obj
 0002:00007868       ??_C@_1M@HBAHBIGA@?$AAk?$AAy?$AA?9?$AAk?$AAg@ 0000000140018868     libucrt:lcidtoname_downlevel.obj
 0002:00007878       ??_C@_1M@FJNKGKIG@?$AAa?$AAr?$AA?9?$AAe?$AAg@ 0000000140018878     libucrt:lcidtoname_downlevel.obj
 0002:00007888       ??_C@_1M@PCMGMCGC@?$AAb?$AAg?$AA?9?$AAb?$AAg@ 0000000140018888     libucrt:lcidtoname_downlevel.obj
 0002:00007898       ??_C@_1M@IHMHGAON@?$AAa?$AAr?$AA?9?$AAy?$AAe@ 0000000140018898     libucrt:lcidtoname_downlevel.obj
 0002:000078a8       ??_C@_1M@JKFFICHJ@?$AAe?$AAs?$AA?9?$AAv?$AAe@ 00000001400188a8     libucrt:lcidtoname_downlevel.obj
 0002:000078b8       ??_C@_17BMKGEGOJ@?$AAT?$AAu?$AAe@ 00000001400188b8     libucrt:nlsdata.obj
 0002:000078c0       ??_C@_1BG@CJPGBMEF@?$AAk?$AAe?$AAr?$AAn?$AAe?$AAl?$AAb?$AAa?$AAs?$AAe@ 00000001400188c0     libucrt:winapi_thunks.obj
 0002:000078d8       ??_C@_1M@MPJEJAJC@?$AAs?$AAv?$AA?9?$AAs?$AAe@ 00000001400188d8     libucrt:lcidtoname_downlevel.obj
 0002:000078e8       ??_C@_1O@CLEPOGCA@?$AAs?$AAm?$AAj?$AA?9?$AAs?$AAe@ 00000001400188e8     libucrt:lcidtoname_downlevel.obj
 0002:000078f8       ??_C@_1M@DANKKHJ@?$AAs?$AAe?$AA?9?$AAs?$AAe@ 00000001400188f8     libucrt:lcidtoname_downlevel.obj
 0002:00007908       ??_C@_1O@NDKPBNNH@?$AAs?$AAm?$AAa?$AA?9?$AAs?$AAe@ 0000000140018908     libucrt:lcidtoname_downlevel.obj
 0002:00007918       ??_C@_1O@GBAPEKMJ@?$AAq?$AAu?$AAz?$AA?9?$AAp?$AAe@ 0000000140018918     libucrt:lcidtoname_downlevel.obj
 0002:00007928       ??_C@_1M@EMAMGBGE@?$AAe?$AAs?$AA?9?$AAp?$AAe@ 0000000140018928     libucrt:lcidtoname_downlevel.obj
 0002:00007938       ??_C@_19EPFLPGAP@?$AAJ?$AAu?$AAn?$AAe@ 0000000140018938     libucrt:nlsdata.obj
 0002:00007948       ??_C@_1M@MPNDHLFK@?$AAs?$AAw?$AA?9?$AAk?$AAe@ 0000000140018948     libucrt:lcidtoname_downlevel.obj
 0002:00007958       ??_C@_1M@LKIFDIGP@?$AAe?$AAn?$AA?9?$AAi?$AAe@ 0000000140018958     libucrt:lcidtoname_downlevel.obj
 0002:00007968       ??_C@_1M@JILFNBIM@?$AAk?$AAa?$AA?9?$AAg?$AAe@ 0000000140018968     libucrt:lcidtoname_downlevel.obj
 0002:00007978       ??_C@_1M@PNMLOJDF@?$AAe?$AAt?$AA?9?$AAe?$AAe@ 0000000140018978     libucrt:lcidtoname_downlevel.obj
 0002:00007988       ??_C@_1M@GFFOJMCJ@?$AAd?$AAe?$AA?9?$AAd?$AAe@ 0000000140018988     libucrt:lcidtoname_downlevel.obj
 0002:00007998       ??_C@_1M@JKEOHLDK@?$AAf?$AAr?$AA?9?$AAb?$AAe@ 0000000140018998     libucrt:lcidtoname_downlevel.obj
 0002:000079a8       ??_C@_1M@KFCFLMJP@?$AAn?$AAl?$AA?9?$AAb?$AAe@ 00000001400189a8     libucrt:lcidtoname_downlevel.obj
 0002:000079b8       ??_C@_1M@GIECOABL@?$AAa?$AAr?$AA?9?$AAa?$AAe@ 00000001400189b8     libucrt:lcidtoname_downlevel.obj
 0002:000079c8       ??_C@_1M@BABBICEC@?$AAi?$AAd?$AA?9?$AAi?$AAd@ 00000001400189c8     libucrt:lcidtoname_downlevel.obj
 0002:000079d8       ??_C@_17CJEDCEPE@?$AAW?$AAe?$AAd@ 00000001400189d8     libucrt:nlsdata.obj
 0002:000079e0       ??_C@_1M@EOHDJGDD@?$AAf?$AAr?$AA?9?$AAm?$AAc@ 00000001400189e0     libucrt:lcidtoname_downlevel.obj
 0002:000079f0       ??_C@_17EGKACKIF@?$AAD?$AAe?$AAc@ 00000001400189f0     libucrt:nlsdata.obj
 0002:000079f8       ??_C@_1O@BHHPIGDN@?$AAq?$AAu?$AAz?$AA?9?$AAe?$AAc@ 00000001400189f8     libucrt:lcidtoname_downlevel.obj
 0002:00007a08       ??_C@_1M@DKHMKNJA@?$AAe?$AAs?$AA?9?$AAe?$AAc@ 0000000140018a08     libucrt:lcidtoname_downlevel.obj
 0002:00007a18       ??_C@_1M@EJALMLHM@?$AAa?$AAr?$AA?9?$AAl?$AAb@ 0000000140018a18     libucrt:lcidtoname_downlevel.obj
 0002:00007a28       ??_C@_1M@DHBHFONH@?$AAc?$AAy?$AA?9?$AAg?$AAb@ 0000000140018a28     libucrt:lcidtoname_downlevel.obj
 0002:00007a38       ??_C@_1M@BNFIGBKG@?$AAe?$AAn?$AA?9?$AAg?$AAb@ 0000000140018a38     libucrt:lcidtoname_downlevel.obj
 0002:00007a48       ??_C@_17LMDJEKJN@?$AAF?$AAe?$AAb@ 0000000140018a48     libucrt:nlsdata.obj
 0002:00007a50       ??_C@_1M@IGMJCDLA@?$AAe?$AAn?$AA?9?$AAc?$AAb@ 0000000140018a50     libucrt:lcidtoname_downlevel.obj
 0002:00007a60       ??_C@_1M@BBGHNHJP@?$AAz?$AAu?$AA?9?$AAz?$AAa@ 0000000140018a60     libucrt:lcidtoname_downlevel.obj
 0002:00007a70       ??_C@_1M@BDGHHBFL@?$AAn?$AAs?$AA?9?$AAz?$AAa@ 0000000140018a70     libucrt:lcidtoname_downlevel.obj
 0002:00007a80       ??_C@_1M@CHBIHOJO@?$AAt?$AAn?$AA?9?$AAz?$AAa@ 0000000140018a80     libucrt:lcidtoname_downlevel.obj
 0002:00007a90       ??_C@_1M@LAKFNPAN@?$AAe?$AAn?$AA?9?$AAz?$AAa@ 0000000140018a90     libucrt:lcidtoname_downlevel.obj
 0002:00007aa0       ??_C@_1M@CPAMEDFI@?$AAx?$AAh?$AA?9?$AAz?$AAa@ 0000000140018aa0     libucrt:lcidtoname_downlevel.obj
 0002:00007ab0       ??_C@_1M@KAHEKEIG@?$AAa?$AAf?$AA?9?$AAz?$AAa@ 0000000140018ab0     libucrt:lcidtoname_downlevel.obj
 0002:00007ac0       ??_C@_1M@KLMCELGA@?$AAu?$AAk?$AA?9?$AAu?$AAa@ 0000000140018ac0     libucrt:lcidtoname_downlevel.obj
 0002:00007ad0       ??_C@_1M@KJDONENM@?$AAa?$AAr?$AA?9?$AAs?$AAa@ 0000000140018ad0     libucrt:lcidtoname_downlevel.obj
 0002:00007ae0       ??_C@_1M@OEPGHFNH@?$AAa?$AAr?$AA?9?$AAq?$AAa@ 0000000140018ae0     libucrt:lcidtoname_downlevel.obj
 0002:00007af0       ??_C@_1M@MDGOPGDD@?$AAe?$AAs?$AA?9?$AAp?$AAa@ 0000000140018af0     libucrt:lcidtoname_downlevel.obj
 0002:00007b00       ??_C@_1M@JAOCLHDH@?$AAa?$AAr?$AA?9?$AAm?$AAa@ 0000000140018b00     libucrt:lcidtoname_downlevel.obj
 0002:00007b10       ??_C@_1M@NOHADPMI@?$AAf?$AAr?$AA?9?$AAc?$AAa@ 0000000140018b10     libucrt:lcidtoname_downlevel.obj
 0002:00007b20       ??_C@_1M@JEHMIMFO@?$AAe?$AAn?$AA?9?$AAc?$AAa@ 0000000140018b20     libucrt:lcidtoname_downlevel.obj
 0002:00007b30       ??_C@_1M@PMBNDPHD@?$AAh?$AAr?$AA?9?$AAb?$AAa@ 0000000140018b30     libucrt:lcidtoname_downlevel.obj
 0002:00007b40       ??_C@_1M@IGEOFBG@?$AAe?$AAn?$AA?9?$AAN?$AAZ@ 0000000140018b40     libucrt:lcidtoname_downlevel.obj
 0002:00007b50       ??_C@_1M@OMLEIIJB@?$AAm?$AAi?$AA?9?$AAN?$AAZ@ 0000000140018b50     libucrt:lcidtoname_downlevel.obj
 0002:00007b60       ??_C@_1M@FHLBGMPP@?$AAk?$AAk?$AA?9?$AAK?$AAZ@ 0000000140018b60     libucrt:lcidtoname_downlevel.obj
 0002:00007b70       ??_C@_1M@JHGLJMGJ@?$AAa?$AAr?$AA?9?$AAD?$AAZ@ 0000000140018b70     libucrt:lcidtoname_downlevel.obj
 0002:00007b80       ??_C@_1M@IJJHFJHA@?$AAc?$AAs?$AA?9?$AAC?$AAZ@ 0000000140018b80     libucrt:lcidtoname_downlevel.obj
 0002:00007b90       ??_C@_1M@HPKGCFGN@?$AAe?$AAn?$AA?9?$AAB?$AAZ@ 0000000140018b90     libucrt:lcidtoname_downlevel.obj
 0002:00007ba0       ??_C@_1M@KBJALCPI@?$AAe?$AAs?$AA?9?$AAU?$AAY@ 0000000140018ba0     libucrt:lcidtoname_downlevel.obj
 0002:00007bb0       ??_C@_1O@KNHJLDJA@?$AAs?$AAy?$AAr?$AA?9?$AAS?$AAY@ 0000000140018bb0     libucrt:lcidtoname_downlevel.obj
 0002:00007bc0       ??_C@_1M@JLANABKE@?$AAa?$AAr?$AA?9?$AAS?$AAY@ 0000000140018bc0     libucrt:lcidtoname_downlevel.obj
 0002:00007bd0       ??_C@_1M@PBFNCDEL@?$AAe?$AAs?$AA?9?$AAP?$AAY@ 0000000140018bd0     libucrt:lcidtoname_downlevel.obj
 0002:00007be0       ??_C@_1M@EIBJEEPA@?$AAm?$AAs?$AA?9?$AAM?$AAY@ 0000000140018be0     libucrt:lcidtoname_downlevel.obj
 0002:00007bf0       ??_C@_1M@GJINLBOK@?$AAa?$AAr?$AA?9?$AAL?$AAY@ 0000000140018bf0     libucrt:lcidtoname_downlevel.obj
 0002:00007c00       ??_C@_1M@OBGLJIPL@?$AAb?$AAe?$AA?9?$AAB?$AAY@ 0000000140018c00     libucrt:lcidtoname_downlevel.obj
 0002:00007c10       ??_C@_1M@PGKJFFGL@?$AAe?$AAs?$AA?9?$AAM?$AAX@ 0000000140018c10     libucrt:lcidtoname_downlevel.obj
 0002:00007c20       ??_C@_1M@GCEJHNEG@?$AAe?$AAn?$AA?9?$AAZ?$AAW@ 0000000140018c20     libucrt:lcidtoname_downlevel.obj
 0002:00007c30       ??_C@_1M@CLNBBOPM@?$AAz?$AAh?$AA?9?$AAT?$AAW@ 0000000140018c30     libucrt:mbctype.obj
 0002:00007c40       ??_C@_1M@JEFHPGGB@?$AAa?$AAr?$AA?9?$AAK?$AAW@ 0000000140018c40     libucrt:lcidtoname_downlevel.obj
 0002:00007c50       ??_C@_1M@CPKKEBLD@?$AAe?$AAs?$AA?9?$AAS?$AAV@ 0000000140018c50     libucrt:lcidtoname_downlevel.obj
 0002:00007c60       ??_C@_1O@MKEKBLAH@?$AAd?$AAi?$AAv?$AA?9?$AAM?$AAV@ 0000000140018c60     libucrt:lcidtoname_downlevel.obj
 0002:00007c70       ??_C@_1M@KGKKAACI@?$AAl?$AAv?$AA?9?$AAL?$AAV@ 0000000140018c70     libucrt:lcidtoname_downlevel.obj
 0002:00007c80       ??_C@_1M@IDNNEJMM@?$AAr?$AAu?$AA?9?$AAR?$AAU@ 0000000140018c80     libucrt:lcidtoname_downlevel.obj
 0002:00007c90       ??_C@_1M@IDCCIHBC@?$AAt?$AAt?$AA?9?$AAR?$AAU@ 0000000140018c90     libucrt:lcidtoname_downlevel.obj
 0002:00007ca0       ??_C@_1M@FHMDOHNN@?$AAf?$AAr?$AA?9?$AAL?$AAU@ 0000000140018ca0     libucrt:lcidtoname_downlevel.obj
 0002:00007cb0       ??_C@_1M@HOIKODND@?$AAd?$AAe?$AA?9?$AAL?$AAU@ 0000000140018cb0     libucrt:lcidtoname_downlevel.obj
 0002:00007cc0       ??_C@_1M@MHLPGNKM@?$AAh?$AAu?$AA?9?$AAH?$AAU@ 0000000140018cc0     libucrt:lcidtoname_downlevel.obj
 0002:00007cd0       ??_C@_1M@KBFBEHJF@?$AAe?$AAn?$AA?9?$AAA?$AAU@ 0000000140018cd0     libucrt:lcidtoname_downlevel.obj
 0002:00007ce0       ??_C@_1M@EKPGLDNI@?$AAe?$AAn?$AA?9?$AAT?$AAT@ 0000000140018ce0     libucrt:lcidtoname_downlevel.obj
 0002:00007cf0       ??_C@_1M@HFFAHKAD@?$AAp?$AAt?$AA?9?$AAP?$AAT@ 0000000140018cf0     libucrt:lcidtoname_downlevel.obj
 0002:00007d00       ??_C@_1M@FIKPIHFE@?$AAm?$AAt?$AA?9?$AAM?$AAT@ 0000000140018d00     libucrt:lcidtoname_downlevel.obj
 0002:00007d10       ??_C@_1M@IFGBIJO@?$AAl?$AAt?$AA?9?$AAL?$AAT@ 0000000140018d10     libucrt:lcidtoname_downlevel.obj
 0002:00007d20       ??_C@_1M@MADIPODN@?$AAi?$AAt?$AA?9?$AAI?$AAT@ 0000000140018d20     libucrt:lcidtoname_downlevel.obj
 0002:00007d30       ??_C@_1O@ICJHKIIK@?$AAz?$AAh?$AA?9?$AAC?$AAH?$AAT@ 0000000140018d30     libucrt:lcidtoname_downlevel.obj
 0002:00007d40       ??_C@_1M@BNOEMJLF@?$AAe?$AAs?$AA?9?$AAG?$AAT@ 0000000140018d40     libucrt:lcidtoname_downlevel.obj
 0002:00007d50       ??_C@_1M@HKKIJHGI@?$AAd?$AAe?$AA?9?$AAA?$AAT@ 0000000140018d50     libucrt:lcidtoname_downlevel.obj
 0002:00007d60       ??_C@_1M@BMHNFIME@?$AAe?$AAn?$AA?9?$AAU?$AAS@ 0000000140018d60     libucrt:nlsdata.obj
 0002:00007d70       ??_C@_1M@LPDDNNPN@?$AAi?$AAs?$AA?9?$AAI?$AAS@ 0000000140018d70     libucrt:lcidtoname_downlevel.obj
 0002:00007d80       ??_C@_1O@BPEAJADD@?$AAz?$AAh?$AA?9?$AAC?$AAH?$AAS@ 0000000140018d80     libucrt:lcidtoname_downlevel.obj
 0002:00007d90       ??_C@_1M@MAOFCAEA@?$AAe?$AAu?$AA?9?$AAE?$AAS@ 0000000140018d90     libucrt:lcidtoname_downlevel.obj
 0002:00007da0       ??_C@_1M@MNPLFAAH@?$AAe?$AAs?$AA?9?$AAE?$AAS@ 0000000140018da0     libucrt:lcidtoname_downlevel.obj
 0002:00007db0       ??_C@_1M@PHGFBEPN@?$AAg?$AAl?$AA?9?$AAE?$AAS@ 0000000140018db0     libucrt:lcidtoname_downlevel.obj
 0002:00007dc0       ??_C@_1M@BJNKEDC@?$AAc?$AAa?$AA?9?$AAE?$AAS@ 0000000140018dc0     libucrt:lcidtoname_downlevel.obj
 0002:00007dd0       ??_C@_1M@MFLCCMPB@?$AAt?$AAr?$AA?9?$AAT?$AAR@ 0000000140018dd0     libucrt:lcidtoname_downlevel.obj
 0002:00007de0       ??_C@_1M@CGFMKEEK@?$AAe?$AAs?$AA?9?$AAP?$AAR@ 0000000140018de0     libucrt:lcidtoname_downlevel.obj
 0002:00007df0       ??_C@_1M@JLOOOEGK@?$AAk?$AAo?$AA?9?$AAK?$AAR@ 0000000140018df0     libucrt:mbctype.obj
 0002:00007e00       ??_C@_1M@FGEAHEDM@?$AAf?$AAa?$AA?9?$AAI?$AAR@ 0000000140018e00     libucrt:lcidtoname_downlevel.obj
 0002:00007e10       ??_C@_1M@LILEEOGM@?$AAh?$AAr?$AA?9?$AAH?$AAR@ 0000000140018e10     libucrt:lcidtoname_downlevel.obj
 0002:00007e20       ??_C@_1M@OOCKEMAM@?$AAe?$AAl?$AA?9?$AAG?$AAR@ 0000000140018e20     libucrt:lcidtoname_downlevel.obj
 0002:00007e30       ??_C@_1M@GLIPPMAC@?$AAf?$AAr?$AA?9?$AAF?$AAR@ 0000000140018e30     libucrt:lcidtoname_downlevel.obj
 0002:00007e40       ??_C@_1M@KDBONEHP@?$AAe?$AAs?$AA?9?$AAC?$AAR@ 0000000140018e40     libucrt:lcidtoname_downlevel.obj
 0002:00007e50       ??_C@_1M@BOCFIGEP@?$AAp?$AAt?$AA?9?$AAB?$AAR@ 0000000140018e50     libucrt:lcidtoname_downlevel.obj
 0002:00007e60       ??_C@_1M@OONGHFHE@?$AAe?$AAs?$AA?9?$AAA?$AAR@ 0000000140018e60     libucrt:lcidtoname_downlevel.obj
 0002:00007e70       ??_C@_1M@PMPEAILG@?$AAa?$AAr?$AA?9?$AAI?$AAQ@ 0000000140018e70     libucrt:lcidtoname_downlevel.obj
 0002:00007e80       ??_C@_1M@HPNHIDJI@?$AAj?$AAa?$AA?9?$AAJ?$AAP@ 0000000140018e80     libucrt:mbctype.obj
 0002:00007e90       ??_C@_1M@IMPFOPBG@?$AAr?$AAo?$AA?9?$AAR?$AAO@ 0000000140018e90     libucrt:lcidtoname_downlevel.obj
 0002:00007ea0       ??_C@_1M@BODBOGLF@?$AAn?$AAn?$AA?9?$AAN?$AAO@ 0000000140018ea0     libucrt:lcidtoname_downlevel.obj
 0002:00007eb0       ??_C@_1O@FMCELNAJ@?$AAs?$AAm?$AAj?$AA?9?$AAN?$AAO@ 0000000140018eb0     libucrt:lcidtoname_downlevel.obj
 0002:00007ec0       ??_C@_1M@HEGGPBFA@?$AAs?$AAe?$AA?9?$AAN?$AAO@ 0000000140018ec0     libucrt:lcidtoname_downlevel.obj
 0002:00007ed0       ??_C@_1M@EANAGDL@?$AAn?$AAb?$AA?9?$AAN?$AAO@ 0000000140018ed0     libucrt:lcidtoname_downlevel.obj
 0002:00007ee0       ??_C@_1O@KEMEEGPO@?$AAs?$AAm?$AAa?$AA?9?$AAN?$AAO@ 0000000140018ee0     libucrt:lcidtoname_downlevel.obj
 0002:00007ef0       ??_C@_1M@JKKFDCNP@?$AAz?$AAh?$AA?9?$AAM?$AAO@ 0000000140018ef0     libucrt:lcidtoname_downlevel.obj
 0002:00007f00       ??_C@_1M@MKKGFKLE@?$AAa?$AAr?$AA?9?$AAJ?$AAO@ 0000000140018f00     libucrt:lcidtoname_downlevel.obj
 0002:00007f10       ??_C@_1M@BLKMHJBI@?$AAf?$AAo?$AA?9?$AAF?$AAO@ 0000000140018f10     libucrt:lcidtoname_downlevel.obj
 0002:00007f20       ??_C@_1M@BMGIGLIF@?$AAe?$AAs?$AA?9?$AAD?$AAO@ 0000000140018f20     libucrt:lcidtoname_downlevel.obj
 0002:00007f30       ??_C@_1M@BGNFLDN@?$AAe?$AAs?$AA?9?$AAC?$AAO@ 0000000140018f30     libucrt:lcidtoname_downlevel.obj
 0002:00007f40       ??_C@_1O@OHDCKDDF@?$AAq?$AAu?$AAz?$AA?9?$AAB?$AAO@ 0000000140018f40     libucrt:lcidtoname_downlevel.obj
 0002:00007f50       ??_C@_1M@MKDBIIJI@?$AAe?$AAs?$AA?9?$AAB?$AAO@ 0000000140018f50     libucrt:lcidtoname_downlevel.obj
 0002:00007f60       ??_C@_1M@KBMAIBFN@?$AAv?$AAi?$AA?9?$AAV?$AAN@ 0000000140018f60     libucrt:lcidtoname_downlevel.obj
 0002:00007f70       ??_C@_1M@ELMGFODK@?$AAa?$AAr?$AA?9?$AAT?$AAN@ 0000000140018f70     libucrt:lcidtoname_downlevel.obj
 0002:00007f80       ??_C@_1M@FHIHCBIO@?$AAm?$AAn?$AA?9?$AAM?$AAN@ 0000000140018f80     libucrt:lcidtoname_downlevel.obj
 0002:00007f90       ??_C@_1M@PJGPPBOG@?$AAg?$AAu?$AA?9?$AAI?$AAN@ 0000000140018f90     libucrt:lcidtoname_downlevel.obj
 0002:00007fa0       ??_C@_1M@PBIEACPO@?$AAm?$AAr?$AA?9?$AAI?$AAN@ 0000000140018fa0     libucrt:lcidtoname_downlevel.obj
 0002:00007fb0       ??_C@_1M@CDCLMGHI@?$AAk?$AAn?$AA?9?$AAI?$AAN@ 0000000140018fb0     libucrt:lcidtoname_downlevel.obj
 0002:00007fc0       ??_C@_1M@LOICPMOJ@?$AAb?$AAn?$AA?9?$AAI?$AAN@ 0000000140018fc0     libucrt:lcidtoname_downlevel.obj
 0002:00007fd0       ??_C@_1M@MIODLDKF@?$AAm?$AAl?$AA?9?$AAI?$AAN@ 0000000140018fd0     libucrt:lcidtoname_downlevel.obj
 0002:00007fe0       ??_C@_1O@KPIPDNCP@?$AAk?$AAo?$AAk?$AA?9?$AAI?$AAN@ 0000000140018fe0     libucrt:lcidtoname_downlevel.obj
 0002:00007ff0       ??_C@_1M@LGGJAPPB@?$AAh?$AAi?$AA?9?$AAI?$AAN@ 0000000140018ff0     libucrt:lcidtoname_downlevel.obj
 0002:00008000       ??_C@_1M@KFEHEPAC@?$AAt?$AAe?$AA?9?$AAI?$AAN@ 0000000140019000     libucrt:lcidtoname_downlevel.obj
 0002:00008010       ??_C@_1M@KMKMOPHI@?$AAt?$AAa?$AA?9?$AAI?$AAN@ 0000000140019010     libucrt:lcidtoname_downlevel.obj
 0002:00008020       ??_C@_1M@NIDEAGPH@?$AAs?$AAa?$AA?9?$AAI?$AAN@ 0000000140019020     libucrt:lcidtoname_downlevel.obj
 0002:00008030       ??_C@_1M@KPKKNEAH@?$AAp?$AAa?$AA?9?$AAI?$AAN@ 0000000140019030     libucrt:lcidtoname_downlevel.obj
 0002:00008040       ??_C@_1M@NDBGMMJL@?$AAe?$AAs?$AA?9?$AAH?$AAN@ 0000000140019040     libucrt:lcidtoname_downlevel.obj
 0002:00008050       ??_C@_1M@BIBDDEMK@?$AAz?$AAh?$AA?9?$AAC?$AAN@ 0000000140019050     libucrt:mbctype.obj
 0002:00008060       ??_C@_1M@HEIBJJAD@?$AAm?$AAs?$AA?9?$AAB?$AAN@ 0000000140019060     libucrt:lcidtoname_downlevel.obj
 0002:00008070       ??_C@_1M@DAGCADIM@?$AAa?$AAr?$AA?9?$AAO?$AAM@ 0000000140019070     libucrt:lcidtoname_downlevel.obj
 0002:00008080       ??_C@_1M@FODLMICG@?$AAe?$AAn?$AA?9?$AAJ?$AAM@ 0000000140019080     libucrt:lcidtoname_downlevel.obj
 0002:00008090       ??_C@_1M@GPCBKDJK@?$AAh?$AAy?$AA?9?$AAA?$AAM@ 0000000140019090     libucrt:lcidtoname_downlevel.obj
 0002:000080a0       ??_C@_1M@NEIEMEGP@?$AAp?$AAl?$AA?9?$AAP?$AAL@ 00000001400190a0     libucrt:lcidtoname_downlevel.obj
 0002:000080b0       ??_C@_1M@IHBJJGG@?$AAn?$AAl?$AA?9?$AAN?$AAL@ 00000001400190b0     libucrt:lcidtoname_downlevel.obj
 0002:000080c0       ??_C@_1M@GFMCHPE@?$AAh?$AAe?$AA?9?$AAI?$AAL@ 00000001400190c0     libucrt:lcidtoname_downlevel.obj
 0002:000080d0       ??_C@_1M@BDNIPEND@?$AAe?$AAs?$AA?9?$AAC?$AAL@ 00000001400190d0     libucrt:lcidtoname_downlevel.obj
 0002:000080e0       ??_C@_1M@LJMAMNPJ@?$AAs?$AAq?$AA?9?$AAA?$AAL@ 00000001400190e0     libucrt:lcidtoname_downlevel.obj
 0002:000080f0       ??_C@_1M@FKIFEHPB@?$AAs?$AAk?$AA?9?$AAS?$AAK@ 00000001400190f0     libucrt:lcidtoname_downlevel.obj
 0002:00008100       ??_C@_1M@OIJHDKJN@?$AAu?$AAr?$AA?9?$AAP?$AAK@ 0000000140019100     libucrt:lcidtoname_downlevel.obj
 0002:00008110       ??_C@_1M@IGHABKPI@?$AAm?$AAk?$AA?9?$AAM?$AAK@ 0000000140019110     libucrt:lcidtoname_downlevel.obj
 0002:00008120       ??_C@_1M@EFAKDEDL@?$AAz?$AAh?$AA?9?$AAH?$AAK@ 0000000140019120     libucrt:lcidtoname_downlevel.obj
 0002:00008130       ??_C@_1M@CLPEOBGI@?$AAd?$AAa?$AA?9?$AAD?$AAK@ 0000000140019130     libucrt:lcidtoname_downlevel.obj
 0002:00008140       ??_C@_1M@BCFAJEAD@?$AAs?$AAl?$AA?9?$AAS?$AAI@ 0000000140019140     libucrt:lcidtoname_downlevel.obj
 0002:00008150       ??_C@_1M@JIJIBHDP@?$AAe?$AAs?$AA?9?$AAN?$AAI@ 0000000140019150     libucrt:lcidtoname_downlevel.obj
 0002:00008160       ??_C@_1M@GEEFALPE@?$AAd?$AAe?$AA?9?$AAL?$AAI@ 0000000140019160     libucrt:lcidtoname_downlevel.obj
 0002:00008170       ??_C@_1M@HBMHBGAK@?$AAs?$AAv?$AA?9?$AAF?$AAI@ 0000000140019170     libucrt:lcidtoname_downlevel.obj
 0002:00008180       ??_C@_1O@EOKHMKJK@?$AAs?$AAm?$AAs?$AA?9?$AAF?$AAI@ 0000000140019180     libucrt:lcidtoname_downlevel.obj
 0002:00008190       ??_C@_1O@JMPHMAMC@?$AAs?$AAm?$AAn?$AA?9?$AAF?$AAI@ 0000000140019190     libucrt:lcidtoname_downlevel.obj
 0002:000081a0       ??_C@_1M@DDNJFGID@?$AAf?$AAi?$AA?9?$AAF?$AAI@ 00000001400191a0     libucrt:lcidtoname_downlevel.obj
 0002:000081b0       ??_C@_1M@LNFOCMOB@?$AAs?$AAe?$AA?9?$AAF?$AAI@ 00000001400191b0     libucrt:lcidtoname_downlevel.obj
 0002:000081c0       ??_C@_1M@MKJKIKCL@?$AAt?$AAh?$AA?9?$AAT?$AAH@ 00000001400191c0     libucrt:lcidtoname_downlevel.obj
 0002:000081d0       ??_C@_1M@MLKIBJOJ@?$AAe?$AAn?$AA?9?$AAP?$AAH@ 00000001400191d0     libucrt:lcidtoname_downlevel.obj
 0002:000081e0       ??_C@_1M@HLGMDFHM@?$AAi?$AAt?$AA?9?$AAC?$AAH@ 00000001400191e0     libucrt:lcidtoname_downlevel.obj
 0002:000081f0       ??_C@_1M@EOGNKEK@?$AAf?$AAr?$AA?9?$AAC?$AAH@ 00000001400191f0     libucrt:lcidtoname_downlevel.obj
 0002:00008200       ??_C@_1M@CNKPNOEE@?$AAd?$AAe?$AA?9?$AAC?$AAH@ 0000000140019200     libucrt:lcidtoname_downlevel.obj
 0002:00008210       ??_C@_1M@LLCCOAGA@?$AAa?$AAr?$AA?9?$AAB?$AAH@ 0000000140019210     libucrt:lcidtoname_downlevel.obj
 0002:00008220       ??_C@_1M@GGMNHJNL@?$AAz?$AAh?$AA?9?$AAS?$AAG@ 0000000140019220     libucrt:lcidtoname_downlevel.obj
 0002:00008230       ??_C@_1M@NGJJLCGI@?$AAk?$AAy?$AA?9?$AAK?$AAG@ 0000000140019230     libucrt:lcidtoname_downlevel.obj
 0002:00008240       ??_C@_1M@POEEMAIO@?$AAa?$AAr?$AA?9?$AAE?$AAG@ 0000000140019240     libucrt:lcidtoname_downlevel.obj
 0002:00008250       ??_C@_1M@FFFIGIGK@?$AAb?$AAg?$AA?9?$AAB?$AAG@ 0000000140019250     libucrt:lcidtoname_downlevel.obj
 0002:00008260       ??_C@_1M@CAFJMKOF@?$AAa?$AAr?$AA?9?$AAY?$AAE@ 0000000140019260     libucrt:lcidtoname_downlevel.obj
 0002:00008270       ??_C@_1M@DNMLCIHB@?$AAe?$AAs?$AA?9?$AAV?$AAE@ 0000000140019270     libucrt:lcidtoname_downlevel.obj
 0002:00008280       ??_C@_1M@GIAKDKJK@?$AAs?$AAv?$AA?9?$AAS?$AAE@ 0000000140019280     libucrt:lcidtoname_downlevel.obj
 0002:00008290       ??_C@_1O@IMNBEMCI@?$AAs?$AAm?$AAj?$AA?9?$AAS?$AAE@ 0000000140019290     libucrt:lcidtoname_downlevel.obj
 0002:000082a0       ??_C@_1M@KEJDAAHB@?$AAs?$AAe?$AA?9?$AAS?$AAE@ 00000001400192a0     libucrt:lcidtoname_downlevel.obj
 0002:000082b0       ??_C@_1O@HEDBLHNP@?$AAs?$AAm?$AAa?$AA?9?$AAS?$AAE@ 00000001400192b0     libucrt:lcidtoname_downlevel.obj
 0002:000082c0       ??_C@_1O@MGJBOAMB@?$AAq?$AAu?$AAz?$AA?9?$AAP?$AAE@ 00000001400192c0     libucrt:lcidtoname_downlevel.obj
 0002:000082d0       ??_C@_1M@OLJCMLGM@?$AAe?$AAs?$AA?9?$AAP?$AAE@ 00000001400192d0     libucrt:lcidtoname_downlevel.obj
 0002:000082e0       ??_C@_1M@GIENNBFC@?$AAs?$AAw?$AA?9?$AAK?$AAE@ 00000001400192e0     libucrt:lcidtoname_downlevel.obj
 0002:000082f0       ??_C@_1M@BNBLJCGH@?$AAe?$AAn?$AA?9?$AAI?$AAE@ 00000001400192f0     libucrt:lcidtoname_downlevel.obj
 0002:00008300       ??_C@_1M@DPCLHLIE@?$AAk?$AAa?$AA?9?$AAG?$AAE@ 0000000140019300     libucrt:lcidtoname_downlevel.obj
 0002:00008310       ??_C@_1M@FKFFEDDN@?$AAe?$AAt?$AA?9?$AAE?$AAE@ 0000000140019310     libucrt:lcidtoname_downlevel.obj
 0002:00008320       ??_C@_1M@MCMADGCB@?$AAd?$AAe?$AA?9?$AAD?$AAE@ 0000000140019320     libucrt:lcidtoname_downlevel.obj
 0002:00008330       ??_C@_1M@DNNANBDC@?$AAf?$AAr?$AA?9?$AAB?$AAE@ 0000000140019330     libucrt:lcidtoname_downlevel.obj
 0002:00008340       ??_C@_1M@CLLBGJH@?$AAn?$AAl?$AA?9?$AAB?$AAE@ 0000000140019340     libucrt:lcidtoname_downlevel.obj
 0002:00008350       ??_C@_1M@MPNMEKBD@?$AAa?$AAr?$AA?9?$AAA?$AAE@ 0000000140019350     libucrt:lcidtoname_downlevel.obj
 0002:00008360       ??_C@_1M@LHIPCIEK@?$AAi?$AAd?$AA?9?$AAI?$AAD@ 0000000140019360     libucrt:lcidtoname_downlevel.obj
 0002:00008370       ??_C@_1M@OJONDMDL@?$AAf?$AAr?$AA?9?$AAM?$AAC@ 0000000140019370     libucrt:lcidtoname_downlevel.obj
 0002:00008380       ??_C@_1O@LAOBCMDF@?$AAq?$AAu?$AAz?$AA?9?$AAE?$AAC@ 0000000140019380     libucrt:lcidtoname_downlevel.obj
 0002:00008390       ??_C@_1M@JNOCAHJI@?$AAe?$AAs?$AA?9?$AAE?$AAC@ 0000000140019390     libucrt:lcidtoname_downlevel.obj
 0002:000083a0       ??_C@_1M@OOJFGBHE@?$AAa?$AAr?$AA?9?$AAL?$AAB@ 00000001400193a0     libucrt:lcidtoname_downlevel.obj
 0002:000083b0       ??_C@_1M@JAIJPENP@?$AAc?$AAy?$AA?9?$AAG?$AAB@ 00000001400193b0     libucrt:lcidtoname_downlevel.obj
 0002:000083c0       ??_C@_1M@LKMGMLKO@?$AAe?$AAn?$AA?9?$AAG?$AAB@ 00000001400193c0     libucrt:lcidtoname_downlevel.obj
 0002:000083d0       ??_C@_1M@CBFHIJLI@?$AAe?$AAn?$AA?9?$AAC?$AAB@ 00000001400193d0     libucrt:lcidtoname_downlevel.obj
 0002:000083e0       ??_C@_1M@LGPJHNJH@?$AAz?$AAu?$AA?9?$AAZ?$AAA@ 00000001400193e0     libucrt:lcidtoname_downlevel.obj
 0002:000083f0       ??_C@_1M@LEPJNLFD@?$AAn?$AAs?$AA?9?$AAZ?$AAA@ 00000001400193f0     libucrt:lcidtoname_downlevel.obj
 0002:00008400       ??_C@_1M@IAIGNEJG@?$AAt?$AAn?$AA?9?$AAZ?$AAA@ 0000000140019400     libucrt:lcidtoname_downlevel.obj
 0002:00008410       ??_C@_1M@BHDLHFAF@?$AAe?$AAn?$AA?9?$AAZ?$AAA@ 0000000140019410     libucrt:lcidtoname_downlevel.obj
 0002:00008420       ??_C@_1M@IIJCOJFA@?$AAx?$AAh?$AA?9?$AAZ?$AAA@ 0000000140019420     libucrt:lcidtoname_downlevel.obj
 0002:00008430       ??_C@_1M@HOKAOIO@?$AAa?$AAf?$AA?9?$AAZ?$AAA@ 0000000140019430     libucrt:lcidtoname_downlevel.obj
 0002:00008440       ??_C@_1M@MFMOBGI@?$AAu?$AAk?$AA?9?$AAU?$AAA@ 0000000140019440     libucrt:lcidtoname_downlevel.obj
 0002:00008450       ??_C@_1M@OKAHONE@?$AAa?$AAr?$AA?9?$AAS?$AAA@ 0000000140019450     libucrt:lcidtoname_downlevel.obj
 0002:00008460       ??_C@_1M@EDGINPNP@?$AAa?$AAr?$AA?9?$AAQ?$AAA@ 0000000140019460     libucrt:lcidtoname_downlevel.obj
 0002:00008470       ??_C@_1M@GEPAFMDL@?$AAe?$AAs?$AA?9?$AAP?$AAA@ 0000000140019470     libucrt:lcidtoname_downlevel.obj
 0002:00008480       ??_C@_1M@DHHMBNDP@?$AAa?$AAr?$AA?9?$AAM?$AAA@ 0000000140019480     libucrt:lcidtoname_downlevel.obj
 0002:00008490       ??_C@_1M@HJOOJFMA@?$AAf?$AAr?$AA?9?$AAC?$AAA@ 0000000140019490     libucrt:lcidtoname_downlevel.obj
 0002:000084a0       ??_C@_1M@DDOCCGFG@?$AAe?$AAn?$AA?9?$AAC?$AAA@ 00000001400194a0     libucrt:lcidtoname_downlevel.obj
 0002:000084b0       ??_C@_1M@FLIDJFHL@?$AAh?$AAr?$AA?9?$AAB?$AAA@ 00000001400194b0     libucrt:lcidtoname_downlevel.obj
 0002:000084c0       ??_C@_1DI@KMEPCBPN@?$AAa?$AAp?$AAi?$AA?9?$AAm?$AAs?$AA?9?$AAw?$AAi?$AAn?$AA?9?$AAc?$AAo?$AAr?$AAe@ 00000001400194c0     libucrt:winapi_thunks.obj
 0002:000084f8       ??_C@_1DI@FFFOPEOO@?$AAa?$AAp?$AAi?$AA?9?$AAm?$AAs?$AA?9?$AAw?$AAi?$AAn?$AA?9?$AAc?$AAo?$AAr?$AAe@ 00000001400194f8     libucrt:winapi_thunks.obj
 0002:00008530       ??_C@_1O@BCCLBEOE@?$AAu?$AAs?$AAe?$AAr?$AA3?$AA2@ 0000000140019530     libucrt:winapi_thunks.obj
 0002:00008540       ??_C@_1BC@GDMECMAK@?$AAk?$AAe?$AAr?$AAn?$AAe?$AAl?$AA3?$AA2@ 0000000140019540     libvcruntime:winapi_downlevel.obj
 0002:00008558       ??_C@_1BC@DNHGCMLG@?$AAa?$AAd?$AAv?$AAa?$AAp?$AAi?$AA3?$AA2@ 0000000140019558     libucrt:winapi_thunks.obj
 0002:00008570       ??_C@_1DI@IJCEHOCB@?$AAa?$AAp?$AAi?$AA?9?$AAm?$AAs?$AA?9?$AAw?$AAi?$AAn?$AA?9?$AAc?$AAo?$AAr?$AAe@ 0000000140019570     libucrt:winapi_thunks.obj
 0002:000085a8       ??_C@_1DM@LFJCLCKP@?$AAa?$AAp?$AAi?$AA?9?$AAm?$AAs?$AA?9?$AAw?$AAi?$AAn?$AA?9?$AAc?$AAo?$AAr?$AAe@ 00000001400195a8     libucrt:winapi_thunks.obj
 0002:000085e8       ??_C@_1DO@FPAPJEMD@?$AAa?$AAp?$AAi?$AA?9?$AAm?$AAs?$AA?9?$AAw?$AAi?$AAn?$AA?9?$AAc?$AAo?$AAr?$AAe@ 00000001400195e8     libucrt:winapi_thunks.obj
 0002:00008628       ??_C@_1DM@KHCHBNEB@?$AAa?$AAp?$AAi?$AA?9?$AAm?$AAs?$AA?9?$AAw?$AAi?$AAn?$AA?9?$AAc?$AAo?$AAr?$AAe@ 0000000140019628     libvcruntime:winapi_downlevel.obj
 0002:00008668       ??_C@_1DK@LPPGFMPP@?$AAa?$AAp?$AAi?$AA?9?$AAm?$AAs?$AA?9?$AAw?$AAi?$AAn?$AA?9?$AAc?$AAo?$AAr?$AAe@ 0000000140019668     libvcruntime:winapi_downlevel.obj
 0002:000086a8       ??_C@_1DM@KGHDGBCM@?$AAa?$AAp?$AAi?$AA?9?$AAm?$AAs?$AA?9?$AAw?$AAi?$AAn?$AA?9?$AAc?$AAo?$AAr?$AAe@ 00000001400196a8     libucrt:winapi_thunks.obj
 0002:000086e8       ??_C@_1DK@NDHNAHIO@?$AAa?$AAp?$AAi?$AA?9?$AAm?$AAs?$AA?9?$AAw?$AAi?$AAn?$AA?9?$AAc?$AAo?$AAr?$AAe@ 00000001400196e8     libucrt:winapi_thunks.obj
 0002:00008728       ??_C@_1DM@LNCGDDPN@?$AAa?$AAp?$AAi?$AA?9?$AAm?$AAs?$AA?9?$AAw?$AAi?$AAn?$AA?9?$AAc?$AAo?$AAr?$AAe@ 0000000140019728     libucrt:winapi_thunks.obj
 0002:00008768       ??_C@_1BA@IAIFMGEF@?$AAe?$AAx?$AAt?$AA?9?$AAm?$AAs?$AA?9@ 0000000140019768     libucrt:winapi_thunks.obj
 0002:00008778       ??_C@_1BA@PFFKHIOG@?$AAa?$AAp?$AAi?$AA?9?$AAm?$AAs?$AA?9@ 0000000140019778     libvcruntime:winapi_downlevel.obj
 0002:00008788       ??_C@_1BA@BALFACEM@?$AAC?$AAO?$AAN?$AAO?$AAU?$AAT?$AA$@ 0000000140019788     libucrt:initcon.obj
 0002:000087a0       ??_C@_1EM@DILCGIIO@?$AAa?$AAp?$AAi?$AA?9?$AAm?$AAs?$AA?9?$AAw?$AAi?$AAn?$AA?9?$AAc?$AAo?$AAr?$AAe@ 00000001400197a0     libucrt:winapi_thunks.obj
 0002:000087f0       ??_C@_1EG@DPGNFKGC@?$AAa?$AAp?$AAi?$AA?9?$AAm?$AAs?$AA?9?$AAw?$AAi?$AAn?$AA?9?$AAa?$AAp?$AAp?$AAm@ 00000001400197f0     libucrt:winapi_thunks.obj
 0002:00008840       ??_C@_1EI@MPIAOHOC@?$AAa?$AAp?$AAi?$AA?9?$AAm?$AAs?$AA?9?$AAw?$AAi?$AAn?$AA?9?$AAc?$AAo?$AAr?$AAe@ 0000000140019840     libucrt:winapi_thunks.obj
 0002:00008890       ??_C@_1EA@JGEFHKEI@?$AAa?$AAp?$AAi?$AA?9?$AAm?$AAs?$AA?9?$AAw?$AAi?$AAn?$AA?9?$AAc?$AAo?$AAr?$AAe@ 0000000140019890     libucrt:winapi_thunks.obj
 0002:000088d0       ??_C@_1FK@FPHCKFIE@?$AAa?$AAp?$AAi?$AA?9?$AAm?$AAs?$AA?9?$AAw?$AAi?$AAn?$AA?9?$AAc?$AAo?$AAr?$AAe@ 00000001400198d0     libucrt:winapi_thunks.obj
 0002:00008930       ??_C@_1EG@DBIOJECG@?$AAe?$AAx?$AAt?$AA?9?$AAm?$AAs?$AA?9?$AAw?$AAi?$AAn?$AA?9?$AAn?$AAt?$AAu?$AAs@ 0000000140019930     libucrt:winapi_thunks.obj
 0002:00008980       ??_C@_1EO@IJIOEFOH@?$AAa?$AAp?$AAi?$AA?9?$AAm?$AAs?$AA?9?$AAw?$AAi?$AAn?$AA?9?$AAr?$AAt?$AAc?$AAo@ 0000000140019980     libucrt:winapi_thunks.obj
 0002:000089d0       ??_C@_1FG@HHGEKANL@?$AAa?$AAp?$AAi?$AA?9?$AAm?$AAs?$AA?9?$AAw?$AAi?$AAn?$AA?9?$AAs?$AAe?$AAc?$AAu@ 00000001400199d0     libucrt:winapi_thunks.obj
 0002:00008a30       ??_C@_1EO@FIHMJCLF@?$AAe?$AAx?$AAt?$AA?9?$AAm?$AAs?$AA?9?$AAw?$AAi?$AAn?$AA?9?$AAn?$AAt?$AAu?$AAs@ 0000000140019a30     libucrt:winapi_thunks.obj
 0002:00008a80       __guard_check_icall_fptr   0000000140019a80     libcmt:guard_support.obj
 0002:00008a88       __guard_xfg_check_icall_fptr 0000000140019a88     libcmt:guard_support.obj
 0002:00008a90       __guard_dispatch_icall_fptr 0000000140019a90     libcmt:guard_support.obj
 0002:00008a98       __guard_xfg_dispatch_icall_fptr 0000000140019a98     libcmt:guard_support.obj
 0002:00008aa0       __guard_xfg_table_dispatch_icall_fptr 0000000140019aa0     libcmt:guard_support.obj
 0002:00008aa8       __castguard_check_failure_os_handled_fptr 0000000140019aa8     libcmt:guard_support.obj
 0002:00008ab0       __guard_memcpy_fptr        0000000140019ab0     libvcruntime:softmemtag.obj
 0002:00008ab8       __xc_a                     0000000140019ab8     libcmt:initializers.obj
 0002:00008ac8       __xc_z                     0000000140019ac8     libcmt:initializers.obj
 0002:00008ad0       __xi_a                     0000000140019ad0     libcmt:initializers.obj
 0002:00008ae8       __acrt_stdio_initializer   0000000140019ae8     libucrt:stdio_initializer.obj
 0002:00008af0       __acrt_multibyte_initializer 0000000140019af0     libucrt:multibyte_initializer.obj
 0002:00008af8       __acrt_fmode_initializer   0000000140019af8     libucrt:fmode_initializer.obj
 0002:00008b00       __acrt_tran_fma3_initializer 0000000140019b00     libucrt:fma3_initializer.obj
 0002:00008b08       __xi_z                     0000000140019b08     libcmt:initializers.obj
 0002:00008b10       __xl_a                     0000000140019b10     libcmt:tlssup.obj
 0002:00008b18       __xl_z                     0000000140019b18     libcmt:tlssup.obj
 0002:00008b20       __xp_a                     0000000140019b20     libcmt:initializers.obj
 0002:00008b28       __acrt_locale_terminator   0000000140019b28     libucrt:locale_initializer.obj
 0002:00008b30       __dcrt_console_output_terminator 0000000140019b30     libucrt:console_output_initializer.obj
 0002:00008b38       __acrt_stdio_terminator    0000000140019b38     libucrt:stdio_initializer.obj
 0002:00008b40       __xp_z                     0000000140019b40     libcmt:initializers.obj
 0002:00008b48       __xt_a                     0000000140019b48     libcmt:initializers.obj
 0002:00008b50       __xt_z                     0000000140019b50     libcmt:initializers.obj
 0002:00008de0       __imp_CloseHandle          0000000140019de0     kernel32:KERNEL32.dll
 0002:00008de8       __imp_CompareStringW       0000000140019de8     kernel32:KERNEL32.dll
 0002:00008df0       __imp_CreateFileW          0000000140019df0     kernel32:KERNEL32.dll
 0002:00008df8       __imp_DeleteCriticalSection 0000000140019df8     kernel32:KERNEL32.dll
 0002:00008e00       __imp_EncodePointer        0000000140019e00     kernel32:KERNEL32.dll
 0002:00008e08       __imp_EnterCriticalSection 0000000140019e08     kernel32:KERNEL32.dll
 0002:00008e10       __imp_ExitProcess          0000000140019e10     kernel32:KERNEL32.dll
 0002:00008e18       __imp_FindClose            0000000140019e18     kernel32:KERNEL32.dll
 0002:00008e20       __imp_FindFirstFileExW     0000000140019e20     kernel32:KERNEL32.dll
 0002:00008e28       __imp_FindNextFileW        0000000140019e28     kernel32:KERNEL32.dll
 0002:00008e30       __imp_FlsAlloc             0000000140019e30     kernel32:KERNEL32.dll
 0002:00008e38       __imp_FlsFree              0000000140019e38     kernel32:KERNEL32.dll
 0002:00008e40       __imp_FlsGetValue          0000000140019e40     kernel32:KERNEL32.dll
 0002:00008e48       __imp_FlsSetValue          0000000140019e48     kernel32:KERNEL32.dll
 0002:00008e50       __imp_FlushFileBuffers     0000000140019e50     kernel32:KERNEL32.dll
 0002:00008e58       __imp_FreeEnvironmentStringsW 0000000140019e58     kernel32:KERNEL32.dll
 0002:00008e60       __imp_FreeLibrary          0000000140019e60     kernel32:KERNEL32.dll
 0002:00008e68       __imp_GetACP               0000000140019e68     kernel32:KERNEL32.dll
 0002:00008e70       __imp_GetCPInfo            0000000140019e70     kernel32:KERNEL32.dll
 0002:00008e78       __imp_GetCommandLineA      0000000140019e78     kernel32:KERNEL32.dll
 0002:00008e80       __imp_GetCommandLineW      0000000140019e80     kernel32:KERNEL32.dll
 0002:00008e88       __imp_GetConsoleMode       0000000140019e88     kernel32:KERNEL32.dll
 0002:00008e90       __imp_GetConsoleOutputCP   0000000140019e90     kernel32:KERNEL32.dll
 0002:00008e98       __imp_GetCurrentProcess    0000000140019e98     kernel32:KERNEL32.dll
 0002:00008ea0       __imp_GetCurrentProcessId  0000000140019ea0     kernel32:KERNEL32.dll
 0002:00008ea8       __imp_GetCurrentThreadId   0000000140019ea8     kernel32:KERNEL32.dll
 0002:00008eb0       __imp_GetEnvironmentStringsW 0000000140019eb0     kernel32:KERNEL32.dll
 0002:00008eb8       __imp_GetFileType          0000000140019eb8     kernel32:KERNEL32.dll
 0002:00008ec0       __imp_GetLastError         0000000140019ec0     kernel32:KERNEL32.dll
 0002:00008ec8       __imp_GetModuleFileNameW   0000000140019ec8     kernel32:KERNEL32.dll
 0002:00008ed0       __imp_GetModuleHandleExW   0000000140019ed0     kernel32:KERNEL32.dll
 0002:00008ed8       __imp_GetModuleHandleW     0000000140019ed8     kernel32:KERNEL32.dll
 0002:00008ee0       __imp_GetOEMCP             0000000140019ee0     kernel32:KERNEL32.dll
 0002:00008ee8       __imp_GetProcAddress       0000000140019ee8     kernel32:KERNEL32.dll
 0002:00008ef0       __imp_GetProcessHeap       0000000140019ef0     kernel32:KERNEL32.dll
 0002:00008ef8       __imp_GetStartupInfoW      0000000140019ef8     kernel32:KERNEL32.dll
 0002:00008f00       __imp_GetStdHandle         0000000140019f00     kernel32:KERNEL32.dll
 0002:00008f08       __imp_GetStringTypeW       0000000140019f08     kernel32:KERNEL32.dll
 0002:00008f10       __imp_GetSystemTimeAsFileTime 0000000140019f10     kernel32:KERNEL32.dll
 0002:00008f18       __imp_HeapAlloc            0000000140019f18     kernel32:KERNEL32.dll
 0002:00008f20       __imp_HeapFree             0000000140019f20     kernel32:KERNEL32.dll
 0002:00008f28       __imp_HeapReAlloc          0000000140019f28     kernel32:KERNEL32.dll
 0002:00008f30       __imp_HeapSize             0000000140019f30     kernel32:KERNEL32.dll
 0002:00008f38       __imp_InitializeCriticalSectionAndSpinCount 0000000140019f38     kernel32:KERNEL32.dll
 0002:00008f40       __imp_InitializeCriticalSectionEx 0000000140019f40     kernel32:KERNEL32.dll
 0002:00008f48       __imp_InitializeSListHead  0000000140019f48     kernel32:KERNEL32.dll
 0002:00008f50       __imp_IsDebuggerPresent    0000000140019f50     kernel32:KERNEL32.dll
 0002:00008f58       __imp_IsProcessorFeaturePresent 0000000140019f58     kernel32:KERNEL32.dll
 0002:00008f60       __imp_IsValidCodePage      0000000140019f60     kernel32:KERNEL32.dll
 0002:00008f68       __imp_LCMapStringW         0000000140019f68     kernel32:KERNEL32.dll
 0002:00008f70       __imp_LeaveCriticalSection 0000000140019f70     kernel32:KERNEL32.dll
 0002:00008f78       __imp_LoadLibraryExW       0000000140019f78     kernel32:KERNEL32.dll
 0002:00008f80       __imp_MultiByteToWideChar  0000000140019f80     kernel32:KERNEL32.dll
 0002:00008f88       __imp_QueryPerformanceCounter 0000000140019f88     kernel32:KERNEL32.dll
 0002:00008f90       __imp_RaiseException       0000000140019f90     kernel32:KERNEL32.dll
 0002:00008f98       __imp_RtlCaptureContext    0000000140019f98     kernel32:KERNEL32.dll
 0002:00008fa0       __imp_RtlLookupFunctionEntry 0000000140019fa0     kernel32:KERNEL32.dll
 0002:00008fa8       __imp_RtlPcToFileHeader    0000000140019fa8     kernel32:KERNEL32.dll
 0002:00008fb0       __imp_RtlUnwindEx          0000000140019fb0     kernel32:KERNEL32.dll
 0002:00008fb8       __imp_RtlVirtualUnwind     0000000140019fb8     kernel32:KERNEL32.dll
 0002:00008fc0       __imp_SetEnvironmentVariableW 0000000140019fc0     kernel32:KERNEL32.dll
 0002:00008fc8       __imp_SetFilePointerEx     0000000140019fc8     kernel32:KERNEL32.dll
 0002:00008fd0       __imp_SetLastError         0000000140019fd0     kernel32:KERNEL32.dll
 0002:00008fd8       __imp_SetStdHandle         0000000140019fd8     kernel32:KERNEL32.dll
 0002:00008fe0       __imp_SetUnhandledExceptionFilter 0000000140019fe0     kernel32:KERNEL32.dll
 0002:00008fe8       __imp_TerminateProcess     0000000140019fe8     kernel32:KERNEL32.dll
 0002:00008ff0       __imp_TlsAlloc             0000000140019ff0     kernel32:KERNEL32.dll
 0002:00008ff8       __imp_TlsFree              0000000140019ff8     kernel32:KERNEL32.dll
 0002:00009000       __imp_TlsGetValue          000000014001a000     kernel32:KERNEL32.dll
 0002:00009008       __imp_TlsSetValue          000000014001a008     kernel32:KERNEL32.dll
 0002:00009010       __imp_UnhandledExceptionFilter 000000014001a010     kernel32:KERNEL32.dll
 0002:00009018       __imp_VirtualProtect       000000014001a018     kernel32:KERNEL32.dll
 0002:00009020       __imp_WideCharToMultiByte  000000014001a020     kernel32:KERNEL32.dll
 0002:00009028       __imp_WriteConsoleW        000000014001a028     kernel32:KERNEL32.dll
 0002:00009030       __imp_WriteFile            000000014001a030     kernel32:KERNEL32.dll
 0002:000095c8       __rtc_iaa                  000000014001a5c8     libcmt:initsect.obj
 0002:000095d0       __rtc_izz                  000000014001a5d0     libcmt:initsect.obj
 0002:000095d8       __rtc_taa                  000000014001a5d8     libcmt:initsect.obj
 0002:000095e0       __rtc_tzz                  000000014001a5e0     libcmt:initsect.obj
 0002:0000a480       _CT??_R0?AVexception@std@@@8??0exception@std@@QEAA@AEBV01@@Z24 000000014001b480     aurora_runtime:memory.obj
 0002:0000a4a8       _TI2?AVbad_exception@std@@ 000000014001b4a8     libvcruntime:frame.obj
 0002:0000a4c8       _CTA2?AVbad_exception@std@@ 000000014001b4c8     libvcruntime:frame.obj
 0002:0000a4e0       _CT??_R0?AVbad_exception@std@@@8??0bad_exception@std@@QEAA@AEBV01@@Z24 000000014001b4e0     libvcruntime:frame.obj
 0003:00000080       __security_cookie          000000014001c080     libcmt:gs_cookie.obj
 0003:000000c0       __security_cookie_complement 000000014001c0c0     libcmt:gs_cookie.obj
 0003:000000c8       _fltused                   000000014001c0c8     libcmt:fltused.obj
 0003:000000d0       __isa_inverted             000000014001c0d0     libcmt:cpu_disp.obj
 0003:000000d8       __isa_available            000000014001c0d8     libcmt:cpu_disp.obj
 0003:000000dc       __isa_enabled              000000014001c0dc     libcmt:cpu_disp.obj
 0003:000000e0       __memset_fast_string_threshold 000000014001c0e0     libcmt:cpu_disp.obj
 0003:000000e8       __memset_nt_threshold      000000014001c0e8     libcmt:cpu_disp.obj
 0003:00000100       __scrt_native_dllmain_reason 000000014001c100     libcmt:utility.obj
 0003:00000104       __scrt_default_matherr     000000014001c104     libcmt:matherr.obj
 0003:00000110       _iob                       000000014001c110     libucrt:_file.obj
 0003:00000218       __abort_behavior           000000014001c218     libucrt:abort.obj
 0003:00000230       __acrt_initial_multibyte_data 000000014001c230     libucrt:mbctype.obj
 0003:00000770       __acrt_initial_locale_data 000000014001c770     libucrt:nlsdata.obj
 0003:000008c8       __acrt_initial_locale_pointers 000000014001c8c8     libucrt:nlsdata.obj
 0003:000008d8       __acrt_wide_c_locale_string 000000014001c8d8     libucrt:nlsdata.obj
 0003:000008f0       __acrt_lconv_c             000000014001c8f0     libucrt:localeconv.obj
 0003:00000988       __acrt_lconv_static_decimal 000000014001c988     libucrt:localeconv.obj
 0003:0000098c       __acrt_lconv_static_W_decimal 000000014001c98c     libucrt:localeconv.obj
 0003:00000990       __globallocalestatus       000000014001c990     libucrt:glstatus.obj
 0003:000009a0       _lookuptrailbytes          000000014001c9a0     libucrt:read.obj
 0003:00000aa0       _guard_check_icall_$fo_default$ 000000014001caa0     libcmt:checkcfg.obj
 0003:00000ab0       ??_R0?AVexception@std@@@8  000000014001cab0     aurora_runtime:memory.obj
 0003:00000ad8       ??_R0?AVbad_exception@std@@@8 000000014001cad8     libvcruntime:frame.obj
 0003:00000b00       ??_R0?AVtype_info@@@8      000000014001cb00     libcmt:std_type_info_static.obj
 0003:000093b0       ?_OptionsStorage@?1??__local_stdio_printf_options@@9@4_KA 00000001400253b0     aurora_runtime:memory.obj
 0003:000093b8       _tls_index                 00000001400253b8     libcmt:tlssup.obj
 0003:00009930       __avx10_version            0000000140025930     libcmt:cpu_disp.obj
 0003:00009934       __favor                    0000000140025934     libcmt:cpu_disp.obj
 0000:00000000       _setjmpexused              0000000140025938     <common>
 0003:00009a00       ?__WinRTOutOfMemoryExceptionCallback@@3P6APEAXXZEA 0000000140025a00     libvcruntime:ehhelpers.obj
 0003:00009a38       __pPurecall                0000000140025a38     libvcruntime:purevirt_data.obj
 0003:00009a40       __scrt_current_native_startup_state 0000000140025a40     libcmt:utility.obj
 0003:00009a48       __scrt_native_startup_lock 0000000140025a48     libcmt:utility.obj
 0003:00009a90       ?__type_info_root_node@@3U__type_info_node@@A 0000000140025a90     libcmt:tncleanup.obj
 0003:00009aa0       ?_OptionsStorage@?1??__local_stdio_scanf_options@@9@4_KA 0000000140025aa0     libcmt:default_local_stdio_options.obj
 0000:00000000       __dyn_tls_init_callback    0000000140025ab0     <common>
 0000:00000000       __dyn_tls_dtor_callback    0000000140025ab8     <common>
 0003:00009ac0       __scrt_debugger_hook_flag  0000000140025ac0     libcmt:utility_desktop.obj
 0000:00000000       __scrt_ucrt_dll_is_in_use  0000000140025ac4     <common>
 0003:00009ac8       _nstream                   0000000140025ac8     libucrt:_file.obj
 0003:00009ad0       __piob                     0000000140025ad0     libucrt:_file.obj
 0003:00009ad8       _pgmptr                    0000000140025ad8     libucrt:argv_data.obj
 0003:00009ae0       __argc                     0000000140025ae0     libucrt:argv_data.obj
 0003:00009ae8       __argv                     0000000140025ae8     libucrt:argv_data.obj
 0003:00009af0       __wargv                    0000000140025af0     libucrt:argv_data.obj
 0003:00009af8       _acmdln                    0000000140025af8     libucrt:argv_data.obj
 0003:00009b00       _wcmdln                    0000000140025b00     libucrt:argv_data.obj
 0003:00009b08       _commode                   0000000140025b08     libucrt:ncommode.obj
 0003:00009b30       __acrt_locale_changed_data 0000000140025b30     libucrt:wsetlocale.obj
 0003:00009c48       __acrt_atexit_table        0000000140025c48     libucrt:onexit.obj
 0003:00009c60       __acrt_at_quick_exit_table 0000000140025c60     libucrt:onexit.obj
 0003:00009c78       _environ_table             0000000140025c78     libucrt:environment_initialization.obj
 0003:00009c80       _wenviron_table            0000000140025c80     libucrt:environment_initialization.obj
 0003:00009c88       __dcrt_initial_wide_environment 0000000140025c88     libucrt:environment_initialization.obj
 0003:00009c90       __dcrt_initial_narrow_environment 0000000140025c90     libucrt:environment_initialization.obj
 0003:00009fc0       __acrt_heap                0000000140025fc0     libucrt:heap_handle.obj
 0003:00009fc8       ?__acrt_use_tls2_apis@@3_NA 0000000140025fc8     libucrt:per_thread_data.obj
 0003:00009fd0       __pioinfo                  0000000140025fd0     libucrt:ioinit.obj
 0003:0000a3d0       _nhandle                   00000001400263d0     libucrt:ioinit.obj
 0003:0000a3d8       _mbctype                   00000001400263d8     libucrt:mbctype.obj
 0003:0000a3e0       _mbcasemap                 00000001400263e0     libucrt:mbctype.obj
 0003:0000a3e8       __acrt_current_multibyte_data 00000001400263e8     libucrt:mbctype.obj
 0003:0000a420       __acrt_current_locale_data 0000000140026420     libucrt:nlsdata.obj
 0003:0000a428       __acrt_stdout_buffer       0000000140026428     libucrt:_sftbuf.obj
 0003:0000a430       __acrt_stderr_buffer       0000000140026430     libucrt:_sftbuf.obj
 0003:0000a448       __acrt_lconv_static_null   0000000140026448     libucrt:localeconv.obj
 0003:0000a44c       __acrt_lconv_static_W_null 000000014002644c     libucrt:localeconv.obj
 0003:0000a450       _fmode                     0000000140026450     libucrt:txtmode.obj
 0003:0000a454       __use_fma3_lib             0000000140026454     libucrt:fma3_available.obj
 0003:0000a458       __fma3_is_available        0000000140026458     libucrt:fma3_available.obj
 0006:00000000       _tls_start                 000000014002a000     libcmt:tlssup.obj
 0006:00000010       _tls_end                   000000014002a010     libcmt:tlssup.obj

 entry point at         0001:000041e0

 Static symbols

 0000:00000000       __guard_fids__             0000000140000000     libcmt:std_type_info_static.obj
 0000:00000000       __guard_fids___except_validate_context_record 0000000140000000     libvcruntime:jbcxrval.obj
 0000:00000000       __guard_fids__             0000000140000000     libcmt:guard_support.obj
 0000:00000000       __guard_fids__             0000000140000000     libcmt:guard_support.obj
 0000:00000000       __guard_fids_?UnwindNestedFrames@__FrameHandler3@@SAXPEA_KPEAUEHExceptionRecord@@PEAU_CONTEXT@@0PEAXPEBU_s_FuncInfo@@HHPEBU_s_HandlerType@@PEAU_xDISPATCHER_CONTEXT@@E@Z 0000000140000000     libvcruntime:risctrnsctrl.obj
 0000:00000000       __guard_ehcont_??$_CallSETranslator@V__FrameHandler3@@@@YAHPEAUEHExceptionRecord@@PEA_KPEAU_CONTEXT@@PEAU_xDISPATCHER_CONTEXT@@PEBU_s_FuncInfo@@K1H@Z 0000000140000000     libvcruntime:risctrnsctrl.obj
 0000:00000000       __guard_fids___vcrt_initialize_ptd 0000000140000000     libvcruntime:per_thread_data.obj
 0000:00000000       __guard_ehcont_?FrameUnwindToState@__FrameHandler3@@SAXPEA_KPEAU_xDISPATCHER_CONTEXT@@PEBU_s_FuncInfo@@H@Z 0000000140000000     libvcruntime:frame.obj
 0000:00000000       __guard_ehcont_?CxxCallCatchBlock@__FrameHandler3@@SAPEAXPEAU_EXCEPTION_RECORD@@@Z 0000000140000000     libvcruntime:frame.obj
 0000:00000000       __guard_ehcont_??$BuildCatchObjectHelperInternal@V__FrameHandler3@@@@YAHPEAUEHExceptionRecord@@PEAXPEBU_s_HandlerType@@PEBU_s_CatchableType@@@Z 0000000140000000     libvcruntime:frame.obj
 0000:00000000       __guard_ehcont_??$BuildCatchObjectInternal@V__FrameHandler3@@@@YAXPEAUEHExceptionRecord@@PEAXPEBU_s_HandlerType@@PEBU_s_CatchableType@@@Z 0000000140000000     libvcruntime:frame.obj
 0000:00000000       __guard_fids__             0000000140000000     libvcruntime:frame.obj
 0000:00000000       __guard_fids__             0000000140000000     libvcruntime:ehhelpers.obj
 0000:00000000       __guard_ehcont___DestructExceptionObject 0000000140000000     libvcruntime:ehhelpers.obj
 0000:00000000       __guard_ehcont__IsNonwritableInCurrentImage 0000000140000000     libcmt:pesect.obj
 0000:00000000       __guard_fids__             0000000140000000     libcmt:exe_main.obj
 0000:00000000       __guard_fids_?pre_c_initialization@@YAHXZ 0000000140000000     libcmt:exe_main.obj
 0000:00000000       __guard_ehcont_?__scrt_common_main_seh@@YAHXZ 0000000140000000     libcmt:exe_main.obj
 0000:00000000       __guard_ehcont___scrt_is_nonwritable_in_current_image 0000000140000000     libcmt:utility.obj
 0000:00000000       __guard_fids___scrt_set_unhandled_exception_filter 0000000140000000     libcmt:utility_desktop.obj
 0000:00000000       __guard_fids__             0000000140000000     libvcruntime:softmemtag.obj
 0000:00000000       __guard_fids__             0000000140000000     libucrt:initialization.obj
 0000:00000000       __guard_ehcont_??R<lambda_6e4b09c48022b2350581041d5f6b0c4c>@@QEBA@XZ 0000000140000000     libucrt:exit.obj
 0000:00000000       __guard_ehcont_terminate   0000000140000000     libucrt:terminate.obj
 0000:00000000       __guard_fids___acrt_initialize_ptd 0000000140000000     libucrt:per_thread_data.obj
 0000:00000000       __guard_fids__             0000000140000000     libucrt:stdio_initializer.obj
 0000:00000000       __guard_fids__             0000000140000000     libucrt:locale_initializer.obj
 0000:00000000       __guard_fids_??$expand_argument_wildcards@D@@YAHQEAD0AEAV?$argument_list@D@?A0x5f5c8891@@@Z 0000000140000000     libucrt:argv_wildcards.obj
 0000:00000000       __guard_fids__             0000000140000000     libucrt:multibyte_initializer.obj
 0000:00000000       __guard_fids__             0000000140000000     libucrt:fmode_initializer.obj
 0000:00000000       __guard_fids__             0000000140000000     libucrt:console_output_initializer.obj
 0000:00000000       __guard_fids__             0000000140000000     libucrt:fma3_initializer.obj
 0000:00000004       __guard_fids__             0000000140000004     libcmt:exe_main.obj
 0000:00000004       __guard_fids__             0000000140000004     libucrt:stdio_initializer.obj
 0000:00000008       __guard_fids__             0000000140000008     libcmt:exe_main.obj
 0001:00000390       $$000000                   0000000140001390     libcmt:amdsecgs.obj
 0001:00000618       capture_previous_context   0000000140001618     libcmt:gs_report.obj
 0001:000009b0       $$000000                   00000001400019b0     libvcruntime:memcpy_avx_ermsb_aligned.obj
 0001:000009de       MoveSmall0                 00000001400019de     libvcruntime:memcpy_avx_ermsb_aligned.obj
 0001:000009e0       MoveSmall15                00000001400019e0     libvcruntime:memcpy_avx_ermsb_aligned.obj
 0001:00000a00       MoveSmall11                0000000140001a00     libvcruntime:memcpy_avx_ermsb_aligned.obj
 0001:00000a18       MoveSmall2                 0000000140001a18     libvcruntime:memcpy_avx_ermsb_aligned.obj
 0001:00000a20       MoveSmall7                 0000000140001a20     libvcruntime:memcpy_avx_ermsb_aligned.obj
 0001:00000a38       MoveSmall14                0000000140001a38     libvcruntime:memcpy_avx_ermsb_aligned.obj
 0001:00000a4f       MoveSmall3                 0000000140001a4f     libvcruntime:memcpy_avx_ermsb_aligned.obj
 0001:00000a60       MoveSmall13                0000000140001a60     libvcruntime:memcpy_avx_ermsb_aligned.obj
 0001:00000a76       MoveSmall10                0000000140001a76     libvcruntime:memcpy_avx_ermsb_aligned.obj
 0001:00000a85       MoveSmall9                 0000000140001a85     libvcruntime:memcpy_avx_ermsb_aligned.obj
 0001:00000a93       MoveSmall12                0000000140001a93     libvcruntime:memcpy_avx_ermsb_aligned.obj
 0001:00000aa0       MoveSmall6                 0000000140001aa0     libvcruntime:memcpy_avx_ermsb_aligned.obj
 0001:00000aaf       MoveSmall5                 0000000140001aaf     libvcruntime:memcpy_avx_ermsb_aligned.obj
 0001:00000abd       MoveSmall8                 0000000140001abd     libvcruntime:memcpy_avx_ermsb_aligned.obj
 0001:00000ac4       MoveSmall1                 0000000140001ac4     libvcruntime:memcpy_avx_ermsb_aligned.obj
 0001:00000aca       MoveSmall4                 0000000140001aca     libvcruntime:memcpy_avx_ermsb_aligned.obj
 0001:00000ad0       MoveAbove15                0000000140001ad0     libvcruntime:memcpy_avx_ermsb_aligned.obj
 0001:00000aed       MoveAbove32                0000000140001aed     libvcruntime:memcpy_avx_ermsb_aligned.obj
 0001:00000b17       MoveWithYMM                0000000140001b17     libvcruntime:memcpy_avx_ermsb_aligned.obj
 0001:00000b60       YmmLoop                    0000000140001b60     libvcruntime:memcpy_avx_ermsb_aligned.obj
 0001:00000be8       MovUpTo256WithYMM          0000000140001be8     libvcruntime:memcpy_avx_ermsb_aligned.obj
 0001:00000c05       Mov8YmmBlocks              0000000140001c05     libvcruntime:memcpy_avx_ermsb_aligned.obj
 0001:00000c19       Mov7YmmBlocks              0000000140001c19     libvcruntime:memcpy_avx_ermsb_aligned.obj
 0001:00000c2d       Mov6YmmBlocks              0000000140001c2d     libvcruntime:memcpy_avx_ermsb_aligned.obj
 0001:00000c41       Mov5YmmBlocks              0000000140001c41     libvcruntime:memcpy_avx_ermsb_aligned.obj
 0001:00000c55       Mov4YmmBlocks              0000000140001c55     libvcruntime:memcpy_avx_ermsb_aligned.obj
 0001:00000c63       Mov3YmmBlocks              0000000140001c63     libvcruntime:memcpy_avx_ermsb_aligned.obj
 0001:00000c71       Mov2YmmBlocks              0000000140001c71     libvcruntime:memcpy_avx_ermsb_aligned.obj
 0001:00000c7f       Mov1YmmBlocks              0000000140001c7f     libvcruntime:memcpy_avx_ermsb_aligned.obj
 0001:00000c86       Mov0YmmBlocks              0000000140001c86     libvcruntime:memcpy_avx_ermsb_aligned.obj
 0001:00000c90       YmmLoopNT                  0000000140001c90     libvcruntime:memcpy_avx_ermsb_aligned.obj
 0001:00000d35       Mov8YmmBlocksNT            0000000140001d35     libvcruntime:memcpy_avx_ermsb_aligned.obj
 0001:00000d49       Mov7YmmBlocksNT            0000000140001d49     libvcruntime:memcpy_avx_ermsb_aligned.obj
 0001:00000d5d       Mov6YmmBlocksNT            0000000140001d5d     libvcruntime:memcpy_avx_ermsb_aligned.obj
 0001:00000d71       Mov5YmmBlocksNT            0000000140001d71     libvcruntime:memcpy_avx_ermsb_aligned.obj
 0001:00000d85       Mov4YmmBlocksNT            0000000140001d85     libvcruntime:memcpy_avx_ermsb_aligned.obj
 0001:00000d93       Mov3YmmBlocksNT            0000000140001d93     libvcruntime:memcpy_avx_ermsb_aligned.obj
 0001:00000da1       Mov2YmmBlocksNT            0000000140001da1     libvcruntime:memcpy_avx_ermsb_aligned.obj
 0001:00000daf       Mov1YmmBlocksNT            0000000140001daf     libvcruntime:memcpy_avx_ermsb_aligned.obj
 0001:00000db6       Mov0YmmBlocksNT            0000000140001db6     libvcruntime:memcpy_avx_ermsb_aligned.obj
 0001:00000de0       $$000000                   0000000140001de0     libvcruntime:memcpy_avx_ermsb_aligned_amd.obj
 0001:00000e0e       MoveSmall0                 0000000140001e0e     libvcruntime:memcpy_avx_ermsb_aligned_amd.obj
 0001:00000e10       MoveSmall15                0000000140001e10     libvcruntime:memcpy_avx_ermsb_aligned_amd.obj
 0001:00000e30       MoveSmall11                0000000140001e30     libvcruntime:memcpy_avx_ermsb_aligned_amd.obj
 0001:00000e48       MoveSmall2                 0000000140001e48     libvcruntime:memcpy_avx_ermsb_aligned_amd.obj
 0001:00000e50       MoveSmall7                 0000000140001e50     libvcruntime:memcpy_avx_ermsb_aligned_amd.obj
 0001:00000e68       MoveSmall14                0000000140001e68     libvcruntime:memcpy_avx_ermsb_aligned_amd.obj
 0001:00000e7f       MoveSmall3                 0000000140001e7f     libvcruntime:memcpy_avx_ermsb_aligned_amd.obj
 0001:00000e90       MoveSmall13                0000000140001e90     libvcruntime:memcpy_avx_ermsb_aligned_amd.obj
 0001:00000ea6       MoveSmall10                0000000140001ea6     libvcruntime:memcpy_avx_ermsb_aligned_amd.obj
 0001:00000eb5       MoveSmall9                 0000000140001eb5     libvcruntime:memcpy_avx_ermsb_aligned_amd.obj
 0001:00000ec3       MoveSmall12                0000000140001ec3     libvcruntime:memcpy_avx_ermsb_aligned_amd.obj
 0001:00000ed0       MoveSmall6                 0000000140001ed0     libvcruntime:memcpy_avx_ermsb_aligned_amd.obj
 0001:00000edf       MoveSmall5                 0000000140001edf     libvcruntime:memcpy_avx_ermsb_aligned_amd.obj
 0001:00000eed       MoveSmall8                 0000000140001eed     libvcruntime:memcpy_avx_ermsb_aligned_amd.obj
 0001:00000ef4       MoveSmall1                 0000000140001ef4     libvcruntime:memcpy_avx_ermsb_aligned_amd.obj
 0001:00000efa       MoveSmall4                 0000000140001efa     libvcruntime:memcpy_avx_ermsb_aligned_amd.obj
 0001:00000f00       MoveAbove15                0000000140001f00     libvcruntime:memcpy_avx_ermsb_aligned_amd.obj
 0001:00000f1d       MoveAbove32                0000000140001f1d     libvcruntime:memcpy_avx_ermsb_aligned_amd.obj
 0001:00000f47       MoveWithYMM                0000000140001f47     libvcruntime:memcpy_avx_ermsb_aligned_amd.obj
 0001:00000f90       YmmLoop                    0000000140001f90     libvcruntime:memcpy_avx_ermsb_aligned_amd.obj
 0001:00001018       MovUpTo256WithYMM          0000000140002018     libvcruntime:memcpy_avx_ermsb_aligned_amd.obj
 0001:00001035       Mov8YmmBlocks              0000000140002035     libvcruntime:memcpy_avx_ermsb_aligned_amd.obj
 0001:00001049       Mov7YmmBlocks              0000000140002049     libvcruntime:memcpy_avx_ermsb_aligned_amd.obj
 0001:0000105d       Mov6YmmBlocks              000000014000205d     libvcruntime:memcpy_avx_ermsb_aligned_amd.obj
 0001:00001071       Mov5YmmBlocks              0000000140002071     libvcruntime:memcpy_avx_ermsb_aligned_amd.obj
 0001:00001085       Mov4YmmBlocks              0000000140002085     libvcruntime:memcpy_avx_ermsb_aligned_amd.obj
 0001:00001093       Mov3YmmBlocks              0000000140002093     libvcruntime:memcpy_avx_ermsb_aligned_amd.obj
 0001:000010a1       Mov2YmmBlocks              00000001400020a1     libvcruntime:memcpy_avx_ermsb_aligned_amd.obj
 0001:000010af       Mov1YmmBlocks              00000001400020af     libvcruntime:memcpy_avx_ermsb_aligned_amd.obj
 0001:000010b6       Mov0YmmBlocks              00000001400020b6     libvcruntime:memcpy_avx_ermsb_aligned_amd.obj
 0001:000010c0       YmmLoopNT                  00000001400020c0     libvcruntime:memcpy_avx_ermsb_aligned_amd.obj
 0001:00001165       Mov8YmmBlocksNT            0000000140002165     libvcruntime:memcpy_avx_ermsb_aligned_amd.obj
 0001:00001179       Mov7YmmBlocksNT            0000000140002179     libvcruntime:memcpy_avx_ermsb_aligned_amd.obj
 0001:0000118d       Mov6YmmBlocksNT            000000014000218d     libvcruntime:memcpy_avx_ermsb_aligned_amd.obj
 0001:000011a1       Mov5YmmBlocksNT            00000001400021a1     libvcruntime:memcpy_avx_ermsb_aligned_amd.obj
 0001:000011b5       Mov4YmmBlocksNT            00000001400021b5     libvcruntime:memcpy_avx_ermsb_aligned_amd.obj
 0001:000011c3       Mov3YmmBlocksNT            00000001400021c3     libvcruntime:memcpy_avx_ermsb_aligned_amd.obj
 0001:000011d1       Mov2YmmBlocksNT            00000001400021d1     libvcruntime:memcpy_avx_ermsb_aligned_amd.obj
 0001:000011df       Mov1YmmBlocksNT            00000001400021df     libvcruntime:memcpy_avx_ermsb_aligned_amd.obj
 0001:000011e6       Mov0YmmBlocksNT            00000001400021e6     libvcruntime:memcpy_avx_ermsb_aligned_amd.obj
 0001:00001210       $$000000                   0000000140002210     libvcruntime:memcpy_sse2_ermsb_aligned.obj
 0001:0000123e       MoveSmall0                 000000014000223e     libvcruntime:memcpy_sse2_ermsb_aligned.obj
 0001:00001240       MoveSmall15                0000000140002240     libvcruntime:memcpy_sse2_ermsb_aligned.obj
 0001:00001260       MoveSmall11                0000000140002260     libvcruntime:memcpy_sse2_ermsb_aligned.obj
 0001:00001278       MoveSmall2                 0000000140002278     libvcruntime:memcpy_sse2_ermsb_aligned.obj
 0001:00001280       MoveSmall7                 0000000140002280     libvcruntime:memcpy_sse2_ermsb_aligned.obj
 0001:00001298       MoveSmall14                0000000140002298     libvcruntime:memcpy_sse2_ermsb_aligned.obj
 0001:000012af       MoveSmall3                 00000001400022af     libvcruntime:memcpy_sse2_ermsb_aligned.obj
 0001:000012c0       MoveSmall13                00000001400022c0     libvcruntime:memcpy_sse2_ermsb_aligned.obj
 0001:000012d6       MoveSmall10                00000001400022d6     libvcruntime:memcpy_sse2_ermsb_aligned.obj
 0001:000012e5       MoveSmall9                 00000001400022e5     libvcruntime:memcpy_sse2_ermsb_aligned.obj
 0001:000012f3       MoveSmall12                00000001400022f3     libvcruntime:memcpy_sse2_ermsb_aligned.obj
 0001:00001300       MoveSmall6                 0000000140002300     libvcruntime:memcpy_sse2_ermsb_aligned.obj
 0001:0000130f       MoveSmall5                 000000014000230f     libvcruntime:memcpy_sse2_ermsb_aligned.obj
 0001:0000131d       MoveSmall8                 000000014000231d     libvcruntime:memcpy_sse2_ermsb_aligned.obj
 0001:00001324       MoveSmall1                 0000000140002324     libvcruntime:memcpy_sse2_ermsb_aligned.obj
 0001:0000132a       MoveSmall4                 000000014000232a     libvcruntime:memcpy_sse2_ermsb_aligned.obj
 0001:00001330       MoveAbove15                0000000140002330     libvcruntime:memcpy_sse2_ermsb_aligned.obj
 0001:0000134d       MoveAbove32                000000014000234d     libvcruntime:memcpy_sse2_ermsb_aligned.obj
 0001:0000136e       MoveWithXMM                000000014000236e     libvcruntime:memcpy_sse2_ermsb_aligned.obj
 0001:000013b0       XmmLoop                    00000001400023b0     libvcruntime:memcpy_sse2_ermsb_aligned.obj
 0001:0000141c       MovUpTo128WithXMM          000000014000241c     libvcruntime:memcpy_sse2_ermsb_aligned.obj
 0001:00001439       Mov8XmmBlocks              0000000140002439     libvcruntime:memcpy_sse2_ermsb_aligned.obj
 0001:00001447       Mov7XmmBlocks              0000000140002447     libvcruntime:memcpy_sse2_ermsb_aligned.obj
 0001:00001455       Mov6XmmBlocks              0000000140002455     libvcruntime:memcpy_sse2_ermsb_aligned.obj
 0001:00001463       Mov5XmmBlocks              0000000140002463     libvcruntime:memcpy_sse2_ermsb_aligned.obj
 0001:00001471       Mov4XmmBlocks              0000000140002471     libvcruntime:memcpy_sse2_ermsb_aligned.obj
 0001:0000147f       Mov3XmmBlocks              000000014000247f     libvcruntime:memcpy_sse2_ermsb_aligned.obj
 0001:0000148d       Mov2XmmBlocks              000000014000248d     libvcruntime:memcpy_sse2_ermsb_aligned.obj
 0001:0000149b       Mov1XmmBlocks              000000014000249b     libvcruntime:memcpy_sse2_ermsb_aligned.obj
 0001:000014a2       Mov0XmmBlocks              00000001400024a2     libvcruntime:memcpy_sse2_ermsb_aligned.obj
 0001:000014c0       $$000000                   00000001400024c0     libvcruntime:memcpy_sse2_ermsb_aligned_amd.obj
 0001:000014ee       MoveSmall0                 00000001400024ee     libvcruntime:memcpy_sse2_ermsb_aligned_amd.obj
 0001:000014f0       MoveSmall15                00000001400024f0     libvcruntime:memcpy_sse2_ermsb_aligned_amd.obj
 0001:00001510       MoveSmall11                0000000140002510     libvcruntime:memcpy_sse2_ermsb_aligned_amd.obj
 0001:00001528       MoveSmall2                 0000000140002528     libvcruntime:memcpy_sse2_ermsb_aligned_amd.obj
 0001:00001530       MoveSmall7                 0000000140002530     libvcruntime:memcpy_sse2_ermsb_aligned_amd.obj
 0001:00001548       MoveSmall14                0000000140002548     libvcruntime:memcpy_sse2_ermsb_aligned_amd.obj
 0001:0000155f       MoveSmall3                 000000014000255f     libvcruntime:memcpy_sse2_ermsb_aligned_amd.obj
 0001:00001570       MoveSmall13                0000000140002570     libvcruntime:memcpy_sse2_ermsb_aligned_amd.obj
 0001:00001586       MoveSmall10                0000000140002586     libvcruntime:memcpy_sse2_ermsb_aligned_amd.obj
 0001:00001595       MoveSmall9                 0000000140002595     libvcruntime:memcpy_sse2_ermsb_aligned_amd.obj
 0001:000015a3       MoveSmall12                00000001400025a3     libvcruntime:memcpy_sse2_ermsb_aligned_amd.obj
 0001:000015b0       MoveSmall6                 00000001400025b0     libvcruntime:memcpy_sse2_ermsb_aligned_amd.obj
 0001:000015bf       MoveSmall5                 00000001400025bf     libvcruntime:memcpy_sse2_ermsb_aligned_amd.obj
 0001:000015cd       MoveSmall8                 00000001400025cd     libvcruntime:memcpy_sse2_ermsb_aligned_amd.obj
 0001:000015d4       MoveSmall1                 00000001400025d4     libvcruntime:memcpy_sse2_ermsb_aligned_amd.obj
 0001:000015da       MoveSmall4                 00000001400025da     libvcruntime:memcpy_sse2_ermsb_aligned_amd.obj
 0001:000015e0       MoveAbove15                00000001400025e0     libvcruntime:memcpy_sse2_ermsb_aligned_amd.obj
 0001:000015fd       MoveAbove32                00000001400025fd     libvcruntime:memcpy_sse2_ermsb_aligned_amd.obj
 0001:0000161e       MoveWithXMM                000000014000261e     libvcruntime:memcpy_sse2_ermsb_aligned_amd.obj
 0001:00001660       XmmLoop                    0000000140002660     libvcruntime:memcpy_sse2_ermsb_aligned_amd.obj
 0001:000016cc       MovUpTo128WithXMM          00000001400026cc     libvcruntime:memcpy_sse2_ermsb_aligned_amd.obj
 0001:000016e9       Mov8XmmBlocks              00000001400026e9     libvcruntime:memcpy_sse2_ermsb_aligned_amd.obj
 0001:000016f7       Mov7XmmBlocks              00000001400026f7     libvcruntime:memcpy_sse2_ermsb_aligned_amd.obj
 0001:00001705       Mov6XmmBlocks              0000000140002705     libvcruntime:memcpy_sse2_ermsb_aligned_amd.obj
 0001:00001713       Mov5XmmBlocks              0000000140002713     libvcruntime:memcpy_sse2_ermsb_aligned_amd.obj
 0001:00001721       Mov4XmmBlocks              0000000140002721     libvcruntime:memcpy_sse2_ermsb_aligned_amd.obj
 0001:0000172f       Mov3XmmBlocks              000000014000272f     libvcruntime:memcpy_sse2_ermsb_aligned_amd.obj
 0001:0000173d       Mov2XmmBlocks              000000014000273d     libvcruntime:memcpy_sse2_ermsb_aligned_amd.obj
 0001:0000174b       Mov1XmmBlocks              000000014000274b     libvcruntime:memcpy_sse2_ermsb_aligned_amd.obj
 0001:00001752       Mov0XmmBlocks              0000000140002752     libvcruntime:memcpy_sse2_ermsb_aligned_amd.obj
 0001:00001770       $$000000                   0000000140002770     libvcruntime:memcpy_repmovs.obj
 0001:00001790       $$000000                   0000000140002790     libvcruntime:memcpy_CopyDown.obj
 0001:000017ab       XmmMovAlign                00000001400027ab     libvcruntime:memcpy_CopyDown.obj
 0001:000017c3       XmmMovLargeTest            00000001400027c3     libvcruntime:memcpy_CopyDown.obj
 0001:000017e0       XmmMovLargeOuter           00000001400027e0     libvcruntime:memcpy_CopyDown.obj
 0001:000017e7       XmmMovLargeInner           00000001400027e7     libvcruntime:memcpy_CopyDown.obj
 0001:0000183d       XmmMovSmallTest            000000014000283d     libvcruntime:memcpy_CopyDown.obj
 0001:00001850       XmmMovSmallLoop            0000000140002850     libvcruntime:memcpy_CopyDown.obj
 0001:00001860       XmmMovTrailing             0000000140002860     libvcruntime:memcpy_CopyDown.obj
 0001:00001869       XmmMovReturn               0000000140002869     libvcruntime:memcpy_CopyDown.obj
 0001:00001880       $$000000                   0000000140002880     libvcruntime:memcpy_repmovs_amd.obj
 0001:000018a0       $$000000                   00000001400028a0     libvcruntime:memcpy_CopyDown_amd.obj
 0001:000018bb       XmmMovAlign                00000001400028bb     libvcruntime:memcpy_CopyDown_amd.obj
 0001:000018d3       XmmMovLargeTest            00000001400028d3     libvcruntime:memcpy_CopyDown_amd.obj
 0001:000018f0       XmmMovLargeOuter           00000001400028f0     libvcruntime:memcpy_CopyDown_amd.obj
 0001:000018f7       XmmMovLargeInner           00000001400028f7     libvcruntime:memcpy_CopyDown_amd.obj
 0001:0000194d       XmmMovSmallTest            000000014000294d     libvcruntime:memcpy_CopyDown_amd.obj
 0001:00001960       XmmMovSmallLoop            0000000140002960     libvcruntime:memcpy_CopyDown_amd.obj
 0001:00001970       XmmMovTrailing             0000000140002970     libvcruntime:memcpy_CopyDown_amd.obj
 0001:00001979       XmmMovReturn               0000000140002979     libvcruntime:memcpy_CopyDown_amd.obj
 0001:00002680       ?ExFilterRethrow@@YAHPEAU_EXCEPTION_POINTERS@@PEAUEHExceptionRecord@@PEAH@Z 0000000140003680     libvcruntime:frame.obj
 0001:00002718       ?IsInExceptionSpec@@YAEPEAUEHExceptionRecord@@PEBU_s_ESTypeList@@@Z 0000000140003718     libvcruntime:frame.obj
 0001:00002800       ?Is_bad_exception_allowed@@YAEPEBU_s_ESTypeList@@@Z 0000000140003800     libvcruntime:frame.obj
 0001:000029b0       ??$BuildCatchObjectHelperInternal@V__FrameHandler3@@@@YAHPEAUEHExceptionRecord@@PEAXPEBU_s_HandlerType@@PEBU_s_CatchableType@@@Z 00000001400039b0     libvcruntime:frame.obj
 0001:00002ba4       ??$BuildCatchObjectInternal@V__FrameHandler3@@@@YAXPEAUEHExceptionRecord@@PEAXPEBU_s_HandlerType@@PEBU_s_CatchableType@@@Z 0000000140003ba4     libvcruntime:frame.obj
 0001:00002e94       ??$FindHandler@V__FrameHandler3@@@@YAXPEAUEHExceptionRecord@@PEA_KPEAU_CONTEXT@@PEAU_xDISPATCHER_CONTEXT@@PEBU_s_FuncInfo@@EH1@Z 0000000140003e94     libvcruntime:frame.obj
 0001:00003384       ??$CatchIt@V__FrameHandler3@@@@YAXPEAUEHExceptionRecord@@PEA_KPEAU_CONTEXT@@PEAU_xDISPATCHER_CONTEXT@@PEBU_s_FuncInfo@@PEBU_s_HandlerType@@PEBU_s_CatchableType@@PEBU_s_TryBlockMapEntry@@H1EE@Z 0000000140004384     libvcruntime:frame.obj
 0001:0000345c       ??$FindHandlerForForeignException@V__FrameHandler3@@@@YAXPEAUEHExceptionRecord@@PEA_KPEAU_CONTEXT@@PEAU_xDISPATCHER_CONTEXT@@PEBU_s_FuncInfo@@HH1@Z 000000014000445c     libvcruntime:frame.obj
 0001:00003a68       ?try_get_function@@YAPEAXW4function_id@?A0x14174aea@@QEBDQEBW4module_id@2@2@Z 0000000140004a68     libvcruntime:winapi_downlevel.obj
 0001:00003c00       $$000000                   0000000140004c00     libvcruntime:handlers.obj
 0001:00003ec0       $$000000                   0000000140004ec0     libvcruntime:notify.obj
 0001:00003ee0       $$000000                   0000000140004ee0     libvcruntime:notify.obj
 0001:00003ef0       $$000000                   0000000140004ef0     libvcruntime:notify.obj
 0001:00003f80       ?pre_c_initialization@@YAHXZ 0000000140004f80     libcmt:exe_main.obj
 0001:00004038       ?post_pgo_initialization@@YAHXZ 0000000140005038     libcmt:exe_main.obj
 0001:00004048       ?pre_cpp_initialization@@YAXXZ 0000000140005048     libcmt:exe_main.obj
 0001:00004064       ?__scrt_common_main_seh@@YAHXZ 0000000140005064     libcmt:exe_main.obj
 0001:00004508       uninitialize_c             0000000140005508     libucrt:initialization.obj
 0001:00004508       initialize_environment     0000000140005508     libucrt:initialization.obj
 0001:00004508       initialize_global_state_isolation 0000000140005508     libucrt:initialization.obj
 0001:00004508       uninitialize_global_state_isolation 0000000140005508     libucrt:initialization.obj
 0001:00004508       report_memory_leaks        0000000140005508     libucrt:initialization.obj
 0001:0000483c       initialize_global_variables 000000014000583c     libucrt:initialization.obj
 0001:00004850       initialize_c               0000000140005850     libucrt:initialization.obj
 0001:00004874       uninitialize_environment   0000000140005874     libucrt:initialization.obj
 0001:00004884       initialize_pointers        0000000140005884     libucrt:initialization.obj
 0001:000048c4       uninitialize_vcruntime     00000001400058c4     libucrt:initialization.obj
 0001:000048cc       uninitialize_allocated_memory 00000001400058cc     libucrt:initialization.obj
 0001:0000490c       uninitialize_allocated_io_buffers 000000014000590c     libucrt:initialization.obj
 0001:00004d34       ?try_cor_exit_process@@YAXI@Z 0000000140005d34     libucrt:exit.obj
 0001:00004d98       ?exit_or_terminate_process@@YAXI_N@Z 0000000140005d98     libucrt:exit.obj
 0001:00004dc8       ?common_exit@@YAXHW4_crt_exit_cleanup_mode@@W4_crt_exit_return_mode@@@Z 0000000140005dc8     libucrt:exit.obj
 0001:00004eac       ??R<lambda_6e4b09c48022b2350581041d5f6b0c4c>@@QEBA@XZ 0000000140005eac     libucrt:exit.obj
 0001:00004f6c       ??$?RV<lambda_d80eeec6fff315bfe5c115232f3240e3>@@AEAV<lambda_6e4b09c48022b2350581041d5f6b0c4c>@@V<lambda_2358e3775559c9db80273638284d5e45>@@@?$__crt_seh_guarded_call@X@@QEAAX$$QEAV<lambda_d80eeec6fff315bfe5c115232f3240e3>@@AEAV<lambda_6e4b09c48022b2350581041d5f6b0c4c>@@$$QEAV<lambda_2358e3775559c9db80273638284d5e45>@@@Z 0000000140005f6c     libucrt:exit.obj
 0001:00005154       ??$?RV<lambda_410d79af7f07d98d83a3f525b3859a53>@@AEAV<lambda_3e16ef9562a7dcce91392c22ab16ea36>@@V<lambda_38119f0e861e05405d8a144b9b982f0a>@@@?$__crt_seh_guarded_call@X@@QEAAX$$QEAV<lambda_410d79af7f07d98d83a3f525b3859a53>@@AEAV<lambda_3e16ef9562a7dcce91392c22ab16ea36>@@$$QEAV<lambda_38119f0e861e05405d8a144b9b982f0a>@@@Z 0000000140006154     libucrt:wsetlocale.obj
 0001:000053a4       ??$parse_command_line@D@@YAXPEADPEAPEAD0PEA_K2@Z 00000001400063a4     libucrt:argv_parsing.obj
 0001:00005628       ??R<lambda_22ebabd17bc4fa466a2aca6d8deb888d>@@QEBA@XZ 0000000140006628     libucrt:onexit.obj
 0001:000057d8       ??R<lambda_f03950bc5685219e0bcd2087efbe011e>@@QEBA@XZ 00000001400067d8     libucrt:onexit.obj
 0001:000058f0       ??$?RV<lambda_638799b9deba96c50f710eeac98168cd>@@AEAV<lambda_22ebabd17bc4fa466a2aca6d8deb888d>@@V<lambda_a6f7d7db0129f75315ebf26d50c089f1>@@@?$__crt_seh_guarded_call@H@@QEAAH$$QEAV<lambda_638799b9deba96c50f710eeac98168cd>@@AEAV<lambda_22ebabd17bc4fa466a2aca6d8deb888d>@@$$QEAV<lambda_a6f7d7db0129f75315ebf26d50c089f1>@@@Z 00000001400068f0     libucrt:onexit.obj
 0001:0000592c       ??$?RV<lambda_7777bce6b2f8c936911f934f8298dc43>@@AEAV<lambda_f03950bc5685219e0bcd2087efbe011e>@@V<lambda_3883c3dff614d5e0c5f61bb1ac94921c>@@@?$__crt_seh_guarded_call@H@@QEAAH$$QEAV<lambda_7777bce6b2f8c936911f934f8298dc43>@@AEAV<lambda_f03950bc5685219e0bcd2087efbe011e>@@$$QEAV<lambda_3883c3dff614d5e0c5f61bb1ac94921c>@@@Z 000000014000692c     libucrt:onexit.obj
 0001:00005a40       ??$common_initialize_environment_nolock@D@@YAHXZ 0000000140006a40     libucrt:environment_initialization.obj
 0001:00005ab4       ??$uninitialize_environment_internal@D@@YAXAEAPEAPEAD@Z 0000000140006ab4     libucrt:environment_initialization.obj
 0001:00005ad0       ??$uninitialize_environment_internal@_W@@YAXAEAPEAPEA_W@Z 0000000140006ad0     libucrt:environment_initialization.obj
 0001:00005aec       ??$free_environment@D@@YAXQEAPEAD@Z 0000000140006aec     libucrt:environment_initialization.obj
 0001:00005aec       ??$free_environment@_W@@YAXQEAPEA_W@Z 0000000140006aec     libucrt:environment_initialization.obj
 0001:00005b30       ??$create_environment@D@@YAQEAPEADQEAD@Z 0000000140006b30     libucrt:environment_initialization.obj
 0001:00005c44       ??$initialize_environment_by_cloning_nolock@D@@YAHXZ 0000000140006c44     libucrt:environment_initialization.obj
 0001:000064c4       ?try_get_function_slow@@YAPEAXW4function_id@?A0x391cf84c@@QEBDQEBW4module_id@2@2@Z 00000001400074c4     libucrt:winapi_thunks.obj
 0001:00006678       ?try_get_CompareStringEx@@YAP6AHPEB_WK0H0HPEAU_nlsversioninfo@@PEAX_J@ZXZ 0000000140007678     libucrt:winapi_thunks.obj
 0001:0000698c       ?destroy_fls@@YAXPEAX@Z    000000014000798c     libucrt:per_thread_data.obj
 0001:000069ac       ?replace_current_thread_locale_nolock@@YAXQEAU__acrt_ptd@@QEAU__crt_locale_data@@@Z 00000001400079ac     libucrt:per_thread_data.obj
 0001:00006a14       ?construct_ptd_array@@YAXQEAU__acrt_ptd@@@Z 0000000140007a14     libucrt:per_thread_data.obj
 0001:00006ae4       ?destroy_ptd_array@@YAXQEAU__acrt_ptd@@@Z 0000000140007ae4     libucrt:per_thread_data.obj
 0001:00006c94       ??$?RV<lambda_0ae27a3a962d80f24befdcbee591983d>@@AEAV<lambda_8d0ee55de4b1038c4002e0adecdf1839>@@V<lambda_dc504788e8f1664fe9b84e20bfb512f2>@@@?$__crt_seh_guarded_call@X@@QEAAX$$QEAV<lambda_0ae27a3a962d80f24befdcbee591983d>@@AEAV<lambda_8d0ee55de4b1038c4002e0adecdf1839>@@$$QEAV<lambda_dc504788e8f1664fe9b84e20bfb512f2>@@@Z 0000000140007c94     libucrt:per_thread_data.obj
 0001:00006cd4       ??$?RV<lambda_aa87e3671a710a21b5dc78c0bdf72e11>@@AEAV<lambda_92619d2358a28f41a33ba319515a20b9>@@V<lambda_6992ecaafeb10aed2b74cb1fae11a551>@@@?$__crt_seh_guarded_call@X@@QEAAX$$QEAV<lambda_aa87e3671a710a21b5dc78c0bdf72e11>@@AEAV<lambda_92619d2358a28f41a33ba319515a20b9>@@$$QEAV<lambda_6992ecaafeb10aed2b74cb1fae11a551>@@@Z 0000000140007cd4     libucrt:per_thread_data.obj
 0001:00006d1c       ??$?RV<lambda_f2e299630e499de9f9a165e60fcd3db5>@@AEAV<lambda_2ae9d31cdba2644fcbeaf08da7c24588>@@V<lambda_40d01ff24d0e7b3814fdbdcee8eab3c7>@@@?$__crt_seh_guarded_call@X@@QEAAX$$QEAV<lambda_f2e299630e499de9f9a165e60fcd3db5>@@AEAV<lambda_2ae9d31cdba2644fcbeaf08da7c24588>@@$$QEAV<lambda_40d01ff24d0e7b3814fdbdcee8eab3c7>@@@Z 0000000140007d1c     libucrt:per_thread_data.obj
 0001:00006d7c       ??$?RV<lambda_2d41944a1d46af3157314b8a01080d33>@@AEAV<lambda_8f455de75cd7d7f24b4096f044d8b9e6>@@V<lambda_aa500f224e6afead328df44964fe2772>@@@?$__crt_seh_guarded_call@X@@QEAAX$$QEAV<lambda_2d41944a1d46af3157314b8a01080d33>@@AEAV<lambda_8f455de75cd7d7f24b4096f044d8b9e6>@@$$QEAV<lambda_aa500f224e6afead328df44964fe2772>@@@Z 0000000140007d7c     libucrt:per_thread_data.obj
 0001:00006e38       ?initialize_inherited_file_handles_nolock@@YAXXZ 0000000140007e38     libucrt:ioinit.obj
 0001:00006f38       ?initialize_stdio_handles_nolock@@YAXXZ 0000000140007f38     libucrt:ioinit.obj
 0001:00007420       ?getSystemCP@@YAHH@Z       0000000140008420     libucrt:mbctype.obj
 0001:000074a0       ?setSBCS@@YAXPEAU__crt_multibyte_data@@@Z 00000001400084a0     libucrt:mbctype.obj
 0001:00007538       ?update_thread_multibyte_data_internal@@YAPEAU__crt_multibyte_data@@QEAU__acrt_ptd@@QEAPEAU1@@Z 0000000140008538     libucrt:mbctype.obj
 0001:000075f0       ?setmbcp_internal@@YAHH_NQEAU__acrt_ptd@@QEAPEAU__crt_multibyte_data@@@Z 00000001400085f0     libucrt:mbctype.obj
 0001:00007860       ?setSBUpLow@@YAXPEAU__crt_multibyte_data@@@Z 0000000140008860     libucrt:mbctype.obj
 0001:00007a58       ??$?RV<lambda_efdfa57d1f175319df784efa44bb7b81>@@AEAV<lambda_5f0a4c1567f8adc6734073e5d1e1b35c>@@V<lambda_2e8a7d3640ea6ccb4c2413664c2db6fd>@@@?$__crt_seh_guarded_call@X@@QEAAX$$QEAV<lambda_efdfa57d1f175319df784efa44bb7b81>@@AEAV<lambda_5f0a4c1567f8adc6734073e5d1e1b35c>@@$$QEAV<lambda_2e8a7d3640ea6ccb4c2413664c2db6fd>@@@Z 0000000140008a58     libucrt:mbctype.obj
 0001:00007c80       ?select_heap@@YAPEAXQEAX@Z 0000000140008c80     libucrt:free_base.obj
 0001:000083dc       ??$?RV<lambda_450d765d439847d4c735a33c368b5fc0>@@AEAV<lambda_44731a7d0e6d81c3e6aa82d741081786>@@V<lambda_601a2a7da3b7a96e9554ac7215c4b07c>@@@?$__crt_seh_guarded_call@P6AXH@Z@@QEAAP6AXH@Z$$QEAV<lambda_450d765d439847d4c735a33c368b5fc0>@@AEAV<lambda_44731a7d0e6d81c3e6aa82d741081786>@@$$QEAV<lambda_601a2a7da3b7a96e9554ac7215c4b07c>@@@Z 00000001400093dc     libucrt:signal.obj
 0001:0000858c       ?common_flush_all@@YAH_N@Z 000000014000958c     libucrt:fflush.obj
 0001:000085ec       ??$?RV<lambda_842d9ff0dc9ef11c61343bbaebe7f885>@@AEAV<lambda_c5860995281e5c4ce005b3de8f5874ee>@@V<lambda_d90129c13df834fdcbf8d2b88dafcf2d>@@@?$__crt_seh_guarded_call@X@@QEAAX$$QEAV<lambda_842d9ff0dc9ef11c61343bbaebe7f885>@@AEAV<lambda_c5860995281e5c4ce005b3de8f5874ee>@@$$QEAV<lambda_d90129c13df834fdcbf8d2b88dafcf2d>@@@Z 00000001400095ec     libucrt:fflush.obj
 0001:00008688       ??$?RV<lambda_886d6c58226a84441f68b9f2b8217b83>@@AEAV<lambda_ab61a845afdef5b7c387490eaf3616ee>@@V<lambda_f7f22ab5edc0698d5f6905b0d3f44752>@@@?$__crt_seh_guarded_call@X@@QEAAX$$QEAV<lambda_886d6c58226a84441f68b9f2b8217b83>@@AEAV<lambda_ab61a845afdef5b7c387490eaf3616ee>@@$$QEAV<lambda_f7f22ab5edc0698d5f6905b0d3f44752>@@@Z 0000000140009688     libucrt:fflush.obj
 0001:00009474       ?free_crt_array_internal@@YAXQEAPEBX_K@Z 000000014000a474     libucrt:inittime.obj
 0001:00009ae8       ??$common_expand_argv_wildcards@D@@YAHQEAPEADQEAPEAPEAD@Z 000000014000aae8     libucrt:argv_wildcards.obj
 0001:0000a070       ??$copy_and_add_argument_to_buffer@D@@YAHQEBD0_KAEAV?$argument_list@D@?A0x5f5c8891@@@Z 000000014000b070     libucrt:argv_wildcards.obj
 0001:0000a1f4       ??$expand_argument_wildcards@D@@YAHQEAD0AEAV?$argument_list@D@?A0x5f5c8891@@@Z 000000014000b1f4     libucrt:argv_wildcards.obj
 0001:0000a554       ?<lambda_invoker_cdecl>@<lambda_a1ce4c8ae42411fd470c77163914f50e>@@CAHPEBX0@Z 000000014000b554     libucrt:argv_wildcards.obj
 0001:0000a7bc       ?x_ismbbtype_l@@YAHPEAU__crt_locale_pointers@@IHH@Z 000000014000b7bc     libucrt:ismbbyte.obj
 0001:0000aad0       ??$common_set_variable_in_environment_nolock@D@@YAHQEADH@Z 000000014000bad0     libucrt:setenv.obj
 0001:0000ae28       ??$copy_environment@D@@YAPEAPEADQEAPEAD@Z 000000014000be28     libucrt:setenv.obj
 0001:0000b458       ?__acrt_LCMapStringA_stat@@YAHPEAU__crt_locale_pointers@@PEB_WKPEBDHPEADHHH@Z 000000014000c458     libucrt:lcmapstringa.obj
 0001:0000b78c       ?initialize_multibyte@@YAHXZ 000000014000c78c     libucrt:multibyte_initializer.obj
 0001:0000b834       ??$?RV<lambda_a37b2b86f63e897a80ea819b0eb08c01>@@AEAV<lambda_38ce7e780aa69e748d6df282ebc68efe>@@V<lambda_99fb1378e971ab6e7edea83e3a7a83a2>@@@?$__crt_seh_guarded_call@H@@QEAAH$$QEAV<lambda_a37b2b86f63e897a80ea819b0eb08c01>@@AEAV<lambda_38ce7e780aa69e748d6df282ebc68efe>@@$$QEAV<lambda_99fb1378e971ab6e7edea83e3a7a83a2>@@@Z 000000014000c834     libucrt:commit.obj
 0001:0000bd10       ?write_double_translated_ansi_nolock@@YA?AUwrite_result@?A0x17268360@@HQEBDIAEAV__crt_cached_ptd_host@@@Z 000000014000cd10     libucrt:write.obj
 0001:0000c1a4       ?write_text_ansi_nolock@@YA?AUwrite_result@?A0x17268360@@HQEBDI@Z 000000014000d1a4     libucrt:write.obj
 0001:0000c2ac       ?write_text_utf16le_nolock@@YA?AUwrite_result@?A0x17268360@@HQEBDI@Z 000000014000d2ac     libucrt:write.obj
 0001:0000c3c8       ?write_text_utf8_nolock@@YA?AUwrite_result@?A0x17268360@@HQEBDI@Z 000000014000d3c8     libucrt:write.obj
 0001:0000c634       ?_fclose_nolock_internal@@YAHQEAU_iobuf@@AEAV__crt_cached_ptd_host@@@Z 000000014000d634     libucrt:fclose.obj
 0001:0000c6dc       ?_fclose_internal@@YAHQEAU_iobuf@@AEAV__crt_cached_ptd_host@@@Z 000000014000d6dc     libucrt:fclose.obj
 0001:0000c780       $$000000                   000000014000d780     libcmt:chkstk.obj
 0001:0000d01c       $LN79                      000000014000e01c     libucrt:strpbrk.obj
 0001:0000d058       $LN78                      000000014000e058     libucrt:strpbrk.obj
 0001:0000d098       $LN77                      000000014000e098     libucrt:strpbrk.obj
 0001:0000d0e0       fallbackMethod             000000014000e0e0     libucrt:strpbrk.obj
 0001:0000d63c       ??$common_lseek_nolock@_J@@YA_JH_JHAEAV__crt_cached_ptd_host@@@Z 000000014000e63c     libucrt:lseek.obj
 0001:0000d8dc       ??$?RV<lambda_ad8af0d99a0adf03d037d7dffe354bb5>@@AEAV<lambda_c9ba49e555ba839a7b07aa3fbecb7617>@@V<lambda_2f1ebd5d68526518146ae959c9e734c8>@@@?$__crt_seh_guarded_call@H@@QEAAH$$QEAV<lambda_ad8af0d99a0adf03d037d7dffe354bb5>@@AEAV<lambda_c9ba49e555ba839a7b07aa3fbecb7617>@@$$QEAV<lambda_2f1ebd5d68526518146ae959c9e734c8>@@@Z 000000014000e8dc     libucrt:close.obj
 0001:0000db70       ?_strnicmp_validate_param@@YAHQEBD0_K@Z 000000014000eb70     libucrt:strnicmp.obj
 0001:0000dc30       ?InternalCompareStringA@@YAHPEAU__crt_locale_pointers@@PEB_WKPEBDH2HH@Z 000000014000ec30     libucrt:comparestringa.obj
 0001:0000e1e0       $$000000                   000000014000f1e0     libcmt:guard_dispatch.obj
 0001:0000e200       $$000000                   000000014000f200     libcmt:guard_xfg_dispatch.obj
 0001:0000e230       $$000000                   000000014000f230     libcmt:dispatchcfg.obj
 0001:0000e260       $$000000                   000000014000f260     libvcruntime:memcpy.obj
 0001:0000e270       $$000000                   000000014000f270     libvcruntime:memcpy.obj
 0001:0000e29e       MoveSmall0                 000000014000f29e     libvcruntime:memcpy.obj
 0001:0000e2a0       MoveSmall15                000000014000f2a0     libvcruntime:memcpy.obj
 0001:0000e2c0       MoveSmall11                000000014000f2c0     libvcruntime:memcpy.obj
 0001:0000e2d8       MoveSmall2                 000000014000f2d8     libvcruntime:memcpy.obj
 0001:0000e2e0       MoveSmall7                 000000014000f2e0     libvcruntime:memcpy.obj
 0001:0000e2f8       MoveSmall14                000000014000f2f8     libvcruntime:memcpy.obj
 0001:0000e30f       MoveSmall3                 000000014000f30f     libvcruntime:memcpy.obj
 0001:0000e320       MoveSmall13                000000014000f320     libvcruntime:memcpy.obj
 0001:0000e336       MoveSmall10                000000014000f336     libvcruntime:memcpy.obj
 0001:0000e345       MoveSmall9                 000000014000f345     libvcruntime:memcpy.obj
 0001:0000e353       MoveSmall12                000000014000f353     libvcruntime:memcpy.obj
 0001:0000e360       MoveSmall6                 000000014000f360     libvcruntime:memcpy.obj
 0001:0000e36f       MoveSmall5                 000000014000f36f     libvcruntime:memcpy.obj
 0001:0000e37d       MoveSmall8                 000000014000f37d     libvcruntime:memcpy.obj
 0001:0000e384       MoveSmall1                 000000014000f384     libvcruntime:memcpy.obj
 0001:0000e38a       MoveSmall4                 000000014000f38a     libvcruntime:memcpy.obj
 0001:0000e390       MoveAbove15                000000014000f390     libvcruntime:memcpy.obj
 0001:0000e3ad       MoveAbove32                000000014000f3ad     libvcruntime:memcpy.obj
 0001:0000e3ed       MoveWithYMM                000000014000f3ed     libvcruntime:memcpy.obj
 0001:0000e440       YmmLoop                    000000014000f440     libvcruntime:memcpy.obj
 0001:0000e4c8       MovUpTo256WithYMM          000000014000f4c8     libvcruntime:memcpy.obj
 0001:0000e4e5       Mov8YmmBlocks              000000014000f4e5     libvcruntime:memcpy.obj
 0001:0000e4f9       Mov7YmmBlocks              000000014000f4f9     libvcruntime:memcpy.obj
 0001:0000e50d       Mov6YmmBlocks              000000014000f50d     libvcruntime:memcpy.obj
 0001:0000e521       Mov5YmmBlocks              000000014000f521     libvcruntime:memcpy.obj
 0001:0000e535       Mov4YmmBlocks              000000014000f535     libvcruntime:memcpy.obj
 0001:0000e543       Mov3YmmBlocks              000000014000f543     libvcruntime:memcpy.obj
 0001:0000e551       Mov2YmmBlocks              000000014000f551     libvcruntime:memcpy.obj
 0001:0000e55f       Mov1YmmBlocks              000000014000f55f     libvcruntime:memcpy.obj
 0001:0000e566       Mov0YmmBlocks              000000014000f566     libvcruntime:memcpy.obj
 0001:0000e570       YmmLoopNT                  000000014000f570     libvcruntime:memcpy.obj
 0001:0000e615       Mov8YmmBlocksNT            000000014000f615     libvcruntime:memcpy.obj
 0001:0000e629       Mov7YmmBlocksNT            000000014000f629     libvcruntime:memcpy.obj
 0001:0000e63d       Mov6YmmBlocksNT            000000014000f63d     libvcruntime:memcpy.obj
 0001:0000e651       Mov5YmmBlocksNT            000000014000f651     libvcruntime:memcpy.obj
 0001:0000e665       Mov4YmmBlocksNT            000000014000f665     libvcruntime:memcpy.obj
 0001:0000e673       Mov3YmmBlocksNT            000000014000f673     libvcruntime:memcpy.obj
 0001:0000e681       Mov2YmmBlocksNT            000000014000f681     libvcruntime:memcpy.obj
 0001:0000e68f       Mov1YmmBlocksNT            000000014000f68f     libvcruntime:memcpy.obj
 0001:0000e696       Mov0YmmBlocksNT            000000014000f696     libvcruntime:memcpy.obj
 0001:0000e6b0       NoAVX                      000000014000f6b0     libvcruntime:memcpy.obj
 0001:0000e6c6       MoveWithXMM                000000014000f6c6     libvcruntime:memcpy.obj
 0001:0000e700       XmmLoop                    000000014000f700     libvcruntime:memcpy.obj
 0001:0000e76c       MovUpTo128WithXMM          000000014000f76c     libvcruntime:memcpy.obj
 0001:0000e789       Mov8XmmBlocks              000000014000f789     libvcruntime:memcpy.obj
 0001:0000e797       Mov7XmmBlocks              000000014000f797     libvcruntime:memcpy.obj
 0001:0000e7a5       Mov6XmmBlocks              000000014000f7a5     libvcruntime:memcpy.obj
 0001:0000e7b3       Mov5XmmBlocks              000000014000f7b3     libvcruntime:memcpy.obj
 0001:0000e7c1       Mov4XmmBlocks              000000014000f7c1     libvcruntime:memcpy.obj
 0001:0000e7cf       Mov3XmmBlocks              000000014000f7cf     libvcruntime:memcpy.obj
 0001:0000e7dd       Mov2XmmBlocks              000000014000f7dd     libvcruntime:memcpy.obj
 0001:0000e7eb       Mov1XmmBlocks              000000014000f7eb     libvcruntime:memcpy.obj
 0001:0000e7f2       Mov0XmmBlocks              000000014000f7f2     libvcruntime:memcpy.obj
 0001:0000e800       CopyDown                   000000014000f800     libvcruntime:memcpy.obj
 0001:0000e81b       XmmMovAlign                000000014000f81b     libvcruntime:memcpy.obj
 0001:0000e833       XmmMovLargeTest            000000014000f833     libvcruntime:memcpy.obj
 0001:0000e850       XmmMovLargeOuter           000000014000f850     libvcruntime:memcpy.obj
 0001:0000e857       XmmMovLargeInner           000000014000f857     libvcruntime:memcpy.obj
 0001:0000e8ad       XmmMovSmallTest            000000014000f8ad     libvcruntime:memcpy.obj
 0001:0000e8c0       XmmMovSmallLoop            000000014000f8c0     libvcruntime:memcpy.obj
 0001:0000e8d0       XmmMovTrailing             000000014000f8d0     libvcruntime:memcpy.obj
 0001:0000e8d9       XmmMovReturn               000000014000f8d9     libvcruntime:memcpy.obj
 0001:0000e900       $$000000                   000000014000f900     libvcruntime:memset.obj
 0001:0000e910       $$000000                   000000014000f910     libvcruntime:memset.obj
 0001:0000e951       SetSmall15                 000000014000f951     libvcruntime:memset.obj
 0001:0000e955       SetSmall7                  000000014000f955     libvcruntime:memset.obj
 0001:0000e959       SetSmall3                  000000014000f959     libvcruntime:memset.obj
 0001:0000e95e       SetSmall1                  000000014000f95e     libvcruntime:memset.obj
 0001:0000e962       SetSmall0                  000000014000f962     libvcruntime:memset.obj
 0001:0000e963       SetSmall14                 000000014000f963     libvcruntime:memset.obj
 0001:0000e967       SetSmall6                  000000014000f967     libvcruntime:memset.obj
 0001:0000e96b       SetSmall2                  000000014000f96b     libvcruntime:memset.obj
 0001:0000e970       MoveSmall0                 000000014000f970     libvcruntime:memset.obj
 0001:0000e980       SetSmall13                 000000014000f980     libvcruntime:memset.obj
 0001:0000e984       SetSmall5                  000000014000f984     libvcruntime:memset.obj
 0001:0000e990       SetSmall12                 000000014000f990     libvcruntime:memset.obj
 0001:0000e994       SetSmall4                  000000014000f994     libvcruntime:memset.obj
 0001:0000e999       SetSmall11                 000000014000f999     libvcruntime:memset.obj
 0001:0000e9a7       SetSmall9                  000000014000f9a7     libvcruntime:memset.obj
 0001:0000e9b0       SetSmall10                 000000014000f9b0     libvcruntime:memset.obj
 0001:0000e9ba       SetSmall8                  000000014000f9ba     libvcruntime:memset.obj
 0001:0000e9c0       SetAbove15                 000000014000f9c0     libvcruntime:memset.obj
 0001:0000e9d6       SetAbove32                 000000014000f9d6     libvcruntime:memset.obj
 0001:0000ea02       SetWithYMM                 000000014000fa02     libvcruntime:memset.obj
 0001:0000ea40       YmmLoop                    000000014000fa40     libvcruntime:memset.obj
 0001:0000ea8a       SetUpTo256WithYMM          000000014000fa8a     libvcruntime:memset.obj
 0001:0000eaa7       Set8YmmBlocks              000000014000faa7     libvcruntime:memset.obj
 0001:0000eab1       Set7YmmBlocks              000000014000fab1     libvcruntime:memset.obj
 0001:0000eabb       Set6YmmBlocks              000000014000fabb     libvcruntime:memset.obj
 0001:0000eac5       Set5YmmBlocks              000000014000fac5     libvcruntime:memset.obj
 0001:0000eacf       Set4YmmBlocks              000000014000facf     libvcruntime:memset.obj
 0001:0000ead6       Set3YmmBlocks              000000014000fad6     libvcruntime:memset.obj
 0001:0000eadd       Set2YmmBlocks              000000014000fadd     libvcruntime:memset.obj
 0001:0000eae4       Set1YmmBlocks              000000014000fae4     libvcruntime:memset.obj
 0001:0000eaeb       Set0YmmBlocks              000000014000faeb     libvcruntime:memset.obj
 0001:0000eaf3       SetWithYMMNT               000000014000faf3     libvcruntime:memset.obj
 0001:0000eb00       YmmLoopNT                  000000014000fb00     libvcruntime:memset.obj
 0001:0000eb67       Set8YmmBlocksNT            000000014000fb67     libvcruntime:memset.obj
 0001:0000eb71       Set7YmmBlocksNT            000000014000fb71     libvcruntime:memset.obj
 0001:0000eb7b       Set6YmmBlocksNT            000000014000fb7b     libvcruntime:memset.obj
 0001:0000eb85       Set5YmmBlocksNT            000000014000fb85     libvcruntime:memset.obj
 0001:0000eb8f       Set4YmmBlocksNT            000000014000fb8f     libvcruntime:memset.obj
 0001:0000eb96       Set3YmmBlocksNT            000000014000fb96     libvcruntime:memset.obj
 0001:0000eb9d       Set2YmmBlocksNT            000000014000fb9d     libvcruntime:memset.obj
 0001:0000eba4       Set1YmmBlocksNT            000000014000fba4     libvcruntime:memset.obj
 0001:0000ebab       Set0YmmBlocksNT            000000014000fbab     libvcruntime:memset.obj
 0001:0000ebc0       NoAVX                      000000014000fbc0     libvcruntime:memset.obj
 0001:0000ebd6       SetWithXMM                 000000014000fbd6     libvcruntime:memset.obj
 0001:0000ec00       XmmLoop                    000000014000fc00     libvcruntime:memset.obj
 0001:0000ec3e       SetUpTo128WithXMM          000000014000fc3e     libvcruntime:memset.obj
 0001:0000ec5b       Set8XmmBlocks              000000014000fc5b     libvcruntime:memset.obj
 0001:0000ec62       Set7XmmBlocks              000000014000fc62     libvcruntime:memset.obj
 0001:0000ec69       Set6XmmBlocks              000000014000fc69     libvcruntime:memset.obj
 0001:0000ec70       Set5XmmBlocks              000000014000fc70     libvcruntime:memset.obj
 0001:0000ec77       Set4XmmBlocks              000000014000fc77     libvcruntime:memset.obj
 0001:0000ec7e       Set3XmmBlocks              000000014000fc7e     libvcruntime:memset.obj
 0001:0000ec85       Set2XmmBlocks              000000014000fc85     libvcruntime:memset.obj
 0001:0000ec8c       Set1XmmBlocks              000000014000fc8c     libvcruntime:memset.obj
 0001:0000ec93       Set0XmmBlocks              000000014000fc93     libvcruntime:memset.obj
 0001:0000eca0       $$000000                   000000014000fca0     libucrt:strcmp.obj
 0001:0000ed20       $$000000                   000000014000fd20     libucrt:strlen.obj
 0001:0000ede0       $$000000                   000000014000fde0     libucrt:strncmp.obj
 0001:0000ee80       ?filt$0@?0???$_CallSETranslator@V__FrameHandler3@@@@YAHPEAUEHExceptionRecord@@PEA_KPEAU_CONTEXT@@PEAU_xDISPATCHER_CONTEXT@@PEBU_s_FuncInfo@@K1H@Z@4HA 000000014000fe80     libvcruntime:risctrnsctrl.obj
 0001:0000ef27       ?filt$0@?0??CxxCallCatchBlock@__FrameHandler3@@SAPEAXPEAU_EXCEPTION_RECORD@@@Z@4HA 000000014000ff27     libvcruntime:frame.obj
 0001:0000ef48       ?fin$1@?0??CxxCallCatchBlock@__FrameHandler3@@SAPEAXPEAU_EXCEPTION_RECORD@@@Z@4HA 000000014000ff48     libvcruntime:frame.obj
 0001:0000efce       ?filt$0@?0??FrameUnwindToState@__FrameHandler3@@SAXPEA_KPEAU_xDISPATCHER_CONTEXT@@PEBU_s_FuncInfo@@H@Z@4HA 000000014000ffce     libvcruntime:frame.obj
 0001:0000efe4       ?fin$1@?0??FrameUnwindToState@__FrameHandler3@@SAXPEA_KPEAU_xDISPATCHER_CONTEXT@@PEBU_s_FuncInfo@@H@Z@4HA 000000014000ffe4     libvcruntime:frame.obj
 0001:0000f007       __DestructExceptionObject$filt$0 0000000140010007     libvcruntime:ehhelpers.obj
 0001:0000f0a0       _IsNonwritableInCurrentImage$filt$0 00000001400100a0     libcmt:pesect.obj
 0001:0000f0c0       ?filt$0@?0??__scrt_common_main_seh@@YAHXZ@4HA 00000001400100c0     libcmt:exe_main.obj
 0001:0000f0de       __scrt_is_nonwritable_in_current_image$filt$0 00000001400100de     libcmt:utility.obj
 0001:0000f0f6       ?fin$0@?0???$?RV<lambda_d80eeec6fff315bfe5c115232f3240e3>@@AEAV<lambda_6e4b09c48022b2350581041d5f6b0c4c>@@V<lambda_2358e3775559c9db80273638284d5e45>@@@?$__crt_seh_guarded_call@X@@QEAAX$$QEAV<lambda_d80eeec6fff315bfe5c115232f3240e3>@@AEAV<lambda_6e4b09c48022b2350581041d5f6b0c4c>@@$$QEAV<lambda_2358e3775559c9db80273638284d5e45>@@@Z@4HA 00000001400100f6     libucrt:exit.obj
 0001:0000f0f6       ?fin$0@?0???$?RV<lambda_638799b9deba96c50f710eeac98168cd>@@AEAV<lambda_22ebabd17bc4fa466a2aca6d8deb888d>@@V<lambda_a6f7d7db0129f75315ebf26d50c089f1>@@@?$__crt_seh_guarded_call@H@@QEAAH$$QEAV<lambda_638799b9deba96c50f710eeac98168cd>@@AEAV<lambda_22ebabd17bc4fa466a2aca6d8deb888d>@@$$QEAV<lambda_a6f7d7db0129f75315ebf26d50c089f1>@@@Z@4HA 00000001400100f6     libucrt:onexit.obj
 0001:0000f0f6       ?fin$0@?0???$?RV<lambda_7777bce6b2f8c936911f934f8298dc43>@@AEAV<lambda_f03950bc5685219e0bcd2087efbe011e>@@V<lambda_3883c3dff614d5e0c5f61bb1ac94921c>@@@?$__crt_seh_guarded_call@H@@QEAAH$$QEAV<lambda_7777bce6b2f8c936911f934f8298dc43>@@AEAV<lambda_f03950bc5685219e0bcd2087efbe011e>@@$$QEAV<lambda_3883c3dff614d5e0c5f61bb1ac94921c>@@@Z@4HA 00000001400100f6     libucrt:onexit.obj
 0001:0000f0f6       ?fin$0@?0???$?RV<lambda_0ae27a3a962d80f24befdcbee591983d>@@AEAV<lambda_8d0ee55de4b1038c4002e0adecdf1839>@@V<lambda_dc504788e8f1664fe9b84e20bfb512f2>@@@?$__crt_seh_guarded_call@X@@QEAAX$$QEAV<lambda_0ae27a3a962d80f24befdcbee591983d>@@AEAV<lambda_8d0ee55de4b1038c4002e0adecdf1839>@@$$QEAV<lambda_dc504788e8f1664fe9b84e20bfb512f2>@@@Z@4HA 00000001400100f6     libucrt:per_thread_data.obj
 0001:0000f0f6       ?fin$0@?0???$?RV<lambda_2d41944a1d46af3157314b8a01080d33>@@AEAV<lambda_8f455de75cd7d7f24b4096f044d8b9e6>@@V<lambda_aa500f224e6afead328df44964fe2772>@@@?$__crt_seh_guarded_call@X@@QEAAX$$QEAV<lambda_2d41944a1d46af3157314b8a01080d33>@@AEAV<lambda_8f455de75cd7d7f24b4096f044d8b9e6>@@$$QEAV<lambda_aa500f224e6afead328df44964fe2772>@@@Z@4HA 00000001400100f6     libucrt:per_thread_data.obj
 0001:0000f0f6       ?fin$0@?0???$?RV<lambda_aa87e3671a710a21b5dc78c0bdf72e11>@@AEAV<lambda_92619d2358a28f41a33ba319515a20b9>@@V<lambda_6992ecaafeb10aed2b74cb1fae11a551>@@@?$__crt_seh_guarded_call@X@@QEAAX$$QEAV<lambda_aa87e3671a710a21b5dc78c0bdf72e11>@@AEAV<lambda_92619d2358a28f41a33ba319515a20b9>@@$$QEAV<lambda_6992ecaafeb10aed2b74cb1fae11a551>@@@Z@4HA 00000001400100f6     libucrt:per_thread_data.obj
 0001:0000f0f6       ?fin$0@?0???$?RV<lambda_f2e299630e499de9f9a165e60fcd3db5>@@AEAV<lambda_2ae9d31cdba2644fcbeaf08da7c24588>@@V<lambda_40d01ff24d0e7b3814fdbdcee8eab3c7>@@@?$__crt_seh_guarded_call@X@@QEAAX$$QEAV<lambda_f2e299630e499de9f9a165e60fcd3db5>@@AEAV<lambda_2ae9d31cdba2644fcbeaf08da7c24588>@@$$QEAV<lambda_40d01ff24d0e7b3814fdbdcee8eab3c7>@@@Z@4HA 00000001400100f6     libucrt:per_thread_data.obj
 0001:0000f0f6       ?fin$0@?0???$?RV<lambda_450d765d439847d4c735a33c368b5fc0>@@AEAV<lambda_44731a7d0e6d81c3e6aa82d741081786>@@V<lambda_601a2a7da3b7a96e9554ac7215c4b07c>@@@?$__crt_seh_guarded_call@P6AXH@Z@@QEAAP6AXH@Z$$QEAV<lambda_450d765d439847d4c735a33c368b5fc0>@@AEAV<lambda_44731a7d0e6d81c3e6aa82d741081786>@@$$QEAV<lambda_601a2a7da3b7a96e9554ac7215c4b07c>@@@Z@4HA 00000001400100f6     libucrt:signal.obj
 0001:0000f110       ?filt$0@?0???R<lambda_6e4b09c48022b2350581041d5f6b0c4c>@@QEBA@XZ@4HA 0000000140010110     libucrt:exit.obj
 0001:0000f140       _query_new_handler$fin$0   0000000140010140     libucrt:new_handler.obj
 0001:0000f156       _set_new_handler$fin$0     0000000140010156     libucrt:new_handler.obj
 0001:0000f16c       ?fin$0@?0???$?RV<lambda_410d79af7f07d98d83a3f525b3859a53>@@AEAV<lambda_3e16ef9562a7dcce91392c22ab16ea36>@@V<lambda_38119f0e861e05405d8a144b9b982f0a>@@@?$__crt_seh_guarded_call@X@@QEAAX$$QEAV<lambda_410d79af7f07d98d83a3f525b3859a53>@@AEAV<lambda_3e16ef9562a7dcce91392c22ab16ea36>@@$$QEAV<lambda_38119f0e861e05405d8a144b9b982f0a>@@@Z@4HA 000000014001016c     libucrt:wsetlocale.obj
 0001:0000f186       __acrt_initialize_lowio$fin$0 0000000140010186     libucrt:ioinit.obj
 0001:0000f186       __acrt_lowio_ensure_fh_exists$fin$0 0000000140010186     libucrt:osfinfo.obj
 0001:0000f19f       ?fin$0@?0???$?RV<lambda_efdfa57d1f175319df784efa44bb7b81>@@AEAV<lambda_5f0a4c1567f8adc6734073e5d1e1b35c>@@V<lambda_2e8a7d3640ea6ccb4c2413664c2db6fd>@@@?$__crt_seh_guarded_call@X@@QEAAX$$QEAV<lambda_efdfa57d1f175319df784efa44bb7b81>@@AEAV<lambda_5f0a4c1567f8adc6734073e5d1e1b35c>@@$$QEAV<lambda_2e8a7d3640ea6ccb4c2413664c2db6fd>@@@Z@4HA 000000014001019f     libucrt:mbctype.obj
 0001:0000f1b9       ?fin$0@?0??update_thread_multibyte_data_internal@@YAPEAU__crt_multibyte_data@@QEAU__acrt_ptd@@QEAPEAU1@@Z@4HA 00000001400101b9     libucrt:mbctype.obj
 0001:0000f1d2       raise$fin$0                00000001400101d2     libucrt:signal.obj
 0001:0000f1f3       ?fin$0@?0???$?RV<lambda_842d9ff0dc9ef11c61343bbaebe7f885>@@AEAV<lambda_c5860995281e5c4ce005b3de8f5874ee>@@V<lambda_d90129c13df834fdcbf8d2b88dafcf2d>@@@?$__crt_seh_guarded_call@X@@QEAAX$$QEAV<lambda_842d9ff0dc9ef11c61343bbaebe7f885>@@AEAV<lambda_c5860995281e5c4ce005b3de8f5874ee>@@$$QEAV<lambda_d90129c13df834fdcbf8d2b88dafcf2d>@@@Z@4HA 00000001400101f3     libucrt:fflush.obj
 0001:0000f20e       ?fin$0@?0???$?RV<lambda_886d6c58226a84441f68b9f2b8217b83>@@AEAV<lambda_ab61a845afdef5b7c387490eaf3616ee>@@V<lambda_f7f22ab5edc0698d5f6905b0d3f44752>@@@?$__crt_seh_guarded_call@X@@QEAAX$$QEAV<lambda_886d6c58226a84441f68b9f2b8217b83>@@AEAV<lambda_ab61a845afdef5b7c387490eaf3616ee>@@$$QEAV<lambda_f7f22ab5edc0698d5f6905b0d3f44752>@@@Z@4HA 000000014001020e     libucrt:fflush.obj
 0001:0000f22b       _fcloseall$fin$0           000000014001022b     libucrt:closeall.obj
 0001:0000f244       __acrt_update_thread_locale_data$fin$0 0000000140010244     libucrt:locale_refcounting.obj
 0001:0000f25d       ?fin$0@?0???$?RV<lambda_a37b2b86f63e897a80ea819b0eb08c01>@@AEAV<lambda_38ce7e780aa69e748d6df282ebc68efe>@@V<lambda_99fb1378e971ab6e7edea83e3a7a83a2>@@@?$__crt_seh_guarded_call@H@@QEAAH$$QEAV<lambda_a37b2b86f63e897a80ea819b0eb08c01>@@AEAV<lambda_38ce7e780aa69e748d6df282ebc68efe>@@$$QEAV<lambda_99fb1378e971ab6e7edea83e3a7a83a2>@@@Z@4HA 000000014001025d     libucrt:commit.obj
 0001:0000f25d       ?fin$0@?0???$?RV<lambda_ad8af0d99a0adf03d037d7dffe354bb5>@@AEAV<lambda_c9ba49e555ba839a7b07aa3fbecb7617>@@V<lambda_2f1ebd5d68526518146ae959c9e734c8>@@@?$__crt_seh_guarded_call@H@@QEAAH$$QEAV<lambda_ad8af0d99a0adf03d037d7dffe354bb5>@@AEAV<lambda_c9ba49e555ba839a7b07aa3fbecb7617>@@$$QEAV<lambda_2f1ebd5d68526518146ae959c9e734c8>@@@Z@4HA 000000014001025d     libucrt:close.obj
 0001:0000f277       _write_internal$fin$0      0000000140010277     libucrt:write.obj
 0001:0000f28e       ?fin$0@?0??_fclose_internal@@YAHQEAU_iobuf@@AEAV__crt_cached_ptd_host@@@Z@4HA 000000014001028e     libucrt:fclose.obj
 0002:00000030       GS_ExceptionPointers       0000000140011030     libcmt:gs_report.obj
 0002:00000040       ?msgs@std@@3QBQEBDB        0000000140011040     libcpmt:thread0.obj
 0002:00000078       ?codes@std@@3QBW4errc@1@B  0000000140011078     libcpmt:thread0.obj
 0002:000000a0       ?_Sys_errtab@?A0xdad2e229@@3QBU_Sys_errtab_t@1@B 00000001400110a0     libcpmt:syserror.obj
 0002:00000590       ?_Win_errtab@?A0xdad2e229@@3QBU_Win_errtab_t@1@B 0000000140011590     libcpmt:syserror.obj
 0002:00000830       ?_Whitespace_bitmap@?A0xfa98056f@@3U_Whitespace_bitmap_t@1@B 0000000140011830     libcpmt:syserror_import_lib.obj
 0002:00000930       ?ExceptionTemplate@?1??UnwindNestedFrames@__FrameHandler3@@SAXPEA_KPEAUEHExceptionRecord@@PEAU_CONTEXT@@0PEAXPEBU_s_FuncInfo@@HHPEBU_s_HandlerType@@PEAU_xDISPATCHER_CONTEXT@@E@Z@4U_EXCEPTION_RECORD@@B 0000000140011930     libvcruntime:risctrnsctrl.obj
 0002:000009e0       ?module_names@?A0x14174aea@@3QBQEB_WB 00000001400119e0     libvcruntime:winapi_downlevel.obj
 0002:000009f8       ?candidate_modules@?1??try_get_FlsAlloc@@YAP6AKP6AXPEAX@Z@ZXZ@4QBW4module_id@?A0x14174aea@@B 00000001400119f8     libvcruntime:winapi_downlevel.obj
 0002:00000a00       ?candidate_modules@?1??try_get_FlsFree@@YAP6AHK@ZXZ@4QBW4module_id@?A0x14174aea@@B 0000000140011a00     libvcruntime:winapi_downlevel.obj
 0002:00000a08       ?candidate_modules@?1??try_get_FlsGetValue@@YAP6APEAXK@ZXZ@4QBW4module_id@?A0x14174aea@@B 0000000140011a08     libvcruntime:winapi_downlevel.obj
 0002:00000a10       ?candidate_modules@?1??try_get_FlsSetValue@@YAP6AHKPEAX@ZXZ@4QBW4module_id@?A0x14174aea@@B 0000000140011a10     libvcruntime:winapi_downlevel.obj
 0002:00000a18       ?candidate_modules@?1??try_get_InitializeCriticalSectionEx@@YAP6AHPEAU_RTL_CRITICAL_SECTION@@KK@ZXZ@4QBW4module_id@?A0x14174aea@@B 0000000140011a18     libvcruntime:winapi_downlevel.obj
 0002:00000a30       ?tokenTable@@3QBUStringLiteral@@B 0000000140011a30     libvcruntime:undname.obj
 0002:00000b40       ?nameTable@@3QBUStringLiteral@@B 0000000140011b40     libvcruntime:undname.obj
 0002:00001070       ?rttiTable@@3QBUStringLiteral@@B 0000000140012070     libvcruntime:undname.obj
 0002:000010c0       ?IndirectionName@@3QBUStringLiteral@@B 00000001400120c0     libvcruntime:undname.obj
 0002:00001120       ?PrefixName@@3QBUStringLiteral@@B 0000000140012120     libvcruntime:undname.obj
 0002:000012a0       __acrt_initializers        00000001400122a0     libucrt:initialization.obj
 0002:000013a0       $cppxdata$?try_cor_exit_process@@YAXI@Z 00000001400123a0     libucrt:exit.obj
 0002:000013c8       $cppxdata$?common_exit@@YAXHW4_crt_exit_cleanup_mode@@W4_crt_exit_return_mode@@@Z 00000001400123c8     libucrt:exit.obj
 0002:000013f0       $cppxdata$_execute_onexit_table 00000001400123f0     libucrt:onexit.obj
 0002:00001418       $cppxdata$__dcrt_uninitialize_environments_nolock 0000000140012418     libucrt:environment_initialization.obj
 0002:00001520       ?module_names@?A0x391cf84c@@3QBQEB_WB 0000000140012520     libucrt:winapi_thunks.obj
 0002:000015d8       ?candidate_modules@?1??try_get_AreFileApisANSI@@YAP6AHXZXZ@4QBW4module_id@?A0x391cf84c@@B 00000001400125d8     libucrt:winapi_thunks.obj
 0002:000015e0       ?candidate_modules@?1??try_get_CompareStringEx@@YAP6AHPEB_WK0H0HPEAU_nlsversioninfo@@PEAX_J@ZXZ@4QBW4module_id@?A0x391cf84c@@B 00000001400125e0     libucrt:winapi_thunks.obj
 0002:000015e8       ?candidate_modules@?1??try_get_FlsGetValue2@@YAP6APEAXK@ZXZ@4QBW4module_id@?A0x391cf84c@@B 00000001400125e8     libucrt:winapi_thunks.obj
 0002:000015f0       ?candidate_modules@?1??try_get_LCMapStringEx@@YAP6AHPEB_WK0HPEA_WHPEAU_nlsversioninfo@@PEAX_J@ZXZ@4QBW4module_id@?A0x391cf84c@@B 00000001400125f0     libucrt:winapi_thunks.obj
 0002:000015f8       ?candidate_modules@?1??try_get_LocaleNameToLCID@@YAP6AKPEB_WK@ZXZ@4QBW4module_id@?A0x391cf84c@@B 00000001400125f8     libucrt:winapi_thunks.obj
 0002:00001600       ?candidate_modules@?1??try_get_AppPolicyGetProcessTerminationMethod@@YAP6AJPEAXPEAW4AppPolicyProcessTerminationMethod@@@ZXZ@4QBW4module_id@?A0x391cf84c@@B 0000000140012600     libucrt:winapi_thunks.obj
 0002:00001608       $cppxdata$__acrt_getptd_head 0000000140012608     libucrt:per_thread_data.obj
 0002:00001630       $cppxdata$__acrt_getptd_noexit 0000000140012630     libucrt:per_thread_data.obj
 0002:00001658       $cppxdata$__acrt_getptd_noexit_explicit 0000000140012658     libucrt:per_thread_data.obj
 0002:00001680       ?_mb_locale_names@@3QBQEB_WB 0000000140012680     libucrt:mbctype.obj
 0002:00001960       ?errtable@@3QBUerrentry@?A0x31fdb9ec@@B 0000000140012960     libucrt:errno.obj
 0002:000020d0       ?LcidToLocaleNameTable@?A0x881e4c05@@3QBULcidToLocaleName@1@B 00000001400130d0     libucrt:lcidtoname_downlevel.obj
 0002:00002f10       ?LocaleNameToIndexTable@?A0x881e4c05@@3QBULocaleNameIndex@1@B 0000000140013f10     libucrt:lcidtoname_downlevel.obj
 0002:00003d50       $cppxdata$?write_double_translated_ansi_nolock@@YA?AUwrite_result@?A0x17268360@@HQEBDIAEAV__crt_cached_ptd_host@@@Z 0000000140014d50     libucrt:write.obj
 0002:00003d80       __real_ninf                0000000140014d80     libucrt:log10.obj
 0002:00003d90       __real_inf                 0000000140014d90     libucrt:log10.obj
 0002:00003da0       __real_neg_qnan            0000000140014da0     libucrt:log10.obj
 0002:00003db0       __real_qnanbit             0000000140014db0     libucrt:log10.obj
 0002:00003dc0       __int_1023                 0000000140014dc0     libucrt:log10.obj
 0002:00003dd0       __mask_001                 0000000140014dd0     libucrt:log10.obj
 0002:00003de0       __mask_mant                0000000140014de0     libucrt:log10.obj
 0002:00003df0       __mask_mant_top8           0000000140014df0     libucrt:log10.obj
 0002:00003e00       __mask_mant9               0000000140014e00     libucrt:log10.obj
 0002:00003e10       __real_log10_e             0000000140014e10     libucrt:log10.obj
 0002:00003e20       __real_log10_e_lead        0000000140014e20     libucrt:log10.obj
 0002:00003e30       __real_log10_e_tail        0000000140014e30     libucrt:log10.obj
 0002:00003e40       __real_log10_2_lead        0000000140014e40     libucrt:log10.obj
 0002:00003e50       __real_log10_2_tail        0000000140014e50     libucrt:log10.obj
 0002:00003e60       __real_two                 0000000140014e60     libucrt:log10.obj
 0002:00003e70       __real_one                 0000000140014e70     libucrt:log10.obj
 0002:00003e80       __real_half                0000000140014e80     libucrt:log10.obj
 0002:00003e90       __mask_100                 0000000140014e90     libucrt:log10.obj
 0002:00003ea0       __real_1_over_512          0000000140014ea0     libucrt:log10.obj
 0002:00003eb0       __real_1_over_2            0000000140014eb0     libucrt:log10.obj
 0002:00003ec0       __real_1_over_3            0000000140014ec0     libucrt:log10.obj
 0002:00003ed0       __real_1_over_4            0000000140014ed0     libucrt:log10.obj
 0002:00003ee0       __real_1_over_5            0000000140014ee0     libucrt:log10.obj
 0002:00003ef0       __real_1_over_6            0000000140014ef0     libucrt:log10.obj
 0002:00003f00       __real_neg_1023            0000000140014f00     libucrt:log10.obj
 0002:00003f10       __mask_2045                0000000140014f10     libucrt:log10.obj
 0002:00003f20       __real_threshold           0000000140014f20     libucrt:log10.obj
 0002:00003f30       __real_near_one_lt         0000000140014f30     libucrt:log10.obj
 0002:00003f40       __real_near_one_gt         0000000140014f40     libucrt:log10.obj
 0002:00003f50       __real_min_norm            0000000140014f50     libucrt:log10.obj
 0002:00003f60       __real_notsign             0000000140014f60     libucrt:log10.obj
 0002:00003f70       __real_ca1                 0000000140014f70     libucrt:log10.obj
 0002:00003f80       __real_ca2                 0000000140014f80     libucrt:log10.obj
 0002:00003f90       __real_ca3                 0000000140014f90     libucrt:log10.obj
 0002:00003fa0       __real_ca4                 0000000140014fa0     libucrt:log10.obj
 0002:00003fb0       __mask_lower               0000000140014fb0     libucrt:log10.obj
 0002:00003fc0       __flag_x_zero              0000000140014fc0     libucrt:log10.obj
 0002:00003fc4       __flag_x_neg               0000000140014fc4     libucrt:log10.obj
 0002:00003fc8       __flag_x_nan               0000000140014fc8     libucrt:log10.obj
 0002:00003fd0       DoubleNegZero              0000000140014fd0     libucrt:floorceil_sse41.obj
 0002:00003fe0       DoubleLargestNumBelowHalf  0000000140014fe0     libucrt:floorceil_sse41.obj
 0002:00003ff0       FloatNegZero               0000000140014ff0     libucrt:floorceil_sse41.obj
 0002:00004000       FloatLargestNumBelowHalf   0000000140015000     libucrt:floorceil_sse41.obj
 0002:00005840       MoveSmall                  0000000140016840     libvcruntime:memcpy.obj
 0002:00005880       MoveSmallYmm               0000000140016880     libvcruntime:memcpy.obj
 0002:000058a4       MoveSmallYmmNT             00000001400168a4     libvcruntime:memcpy.obj
 0002:000058c8       MoveSmallXmm               00000001400168c8     libvcruntime:memcpy.obj
 0002:000058f0       SetSmall                   00000001400168f0     libvcruntime:memset.obj
 0002:00005930       SetSmallYmm                0000000140016930     libvcruntime:memset.obj
 0002:00005954       SetSmallYmmNT              0000000140016954     libvcruntime:memset.obj
 0002:00005978       SetSmallXmm                0000000140016978     libvcruntime:memset.obj
 0002:00008ac0       ?pre_cpp_initializer@@3P6AXXZEA 0000000140019ac0     libcmt:exe_main.obj
 0002:00008ad8       ?pre_c_initializer@@3P6AHXZEA 0000000140019ad8     libcmt:exe_main.obj
 0002:00008ae0       ?post_pgo_initializer@@3P6AHXZEA 0000000140019ae0     libcmt:exe_main.obj
 0002:000095f8       $unwind$aurora_print_str   000000014001a5f8     aurora_runtime:io.obj
 0002:00009604       $unwind$aurora_panic       000000014001a604     aurora_runtime:io.obj
 0002:00009610       $unwind$aurora_str_from_cstr 000000014001a610     aurora_runtime:aurora_str.obj
 0002:00009620       $unwind$??0exception@std@@QEAA@AEBV01@@Z 000000014001a620     aurora_runtime:memory.obj
 0002:00009620       $unwind$__std_exception_destroy 000000014001a620     libvcruntime:std_exception.obj
 0002:00009620       $unwind$??_Gtype_info@@UEAAPEAXI@Z 000000014001a620     libcmt:std_type_info_static.obj
 0002:00009620       $unwind$__raise_securityfailure 000000014001a620     libcmt:gs_report.obj
 0002:00009620       $unwind$?ExecutionInCatch@__FrameHandler3@@SA_NPEAU_xDISPATCHER_CONTEXT@@PEBU_s_FuncInfo@@@Z 000000014001a620     libvcruntime:risctrnsctrl.obj
 0002:00009620       $unwind$_SetImageBase      000000014001a620     libvcruntime:risctrnsctrl.obj
 0002:00009620       $unwind$_SetThrowImageBase 000000014001a620     libvcruntime:risctrnsctrl.obj
 0002:00009620       $unwind$_CreateFrameInfo   000000014001a620     libvcruntime:risctrnsctrl.obj
 0002:00009620       $unwind$?StateFromIp@__FrameHandler3@@SAHPEBU_s_FuncInfo@@PEAU_xDISPATCHER_CONTEXT@@_K@Z 000000014001a620     libvcruntime:ehstate.obj
 0002:00009620       $unwind$?GetUnwindTryBlock@__FrameHandler3@@SAHPEA_KPEAU_xDISPATCHER_CONTEXT@@PEBU_s_FuncInfo@@@Z 000000014001a620     libvcruntime:ehstate.obj
 0002:00009620       $unwind$??0bad_exception@std@@QEAA@AEBV01@@Z 000000014001a620     libvcruntime:frame.obj
 0002:00009620       $unwind$?ExFilterRethrow@@YAHPEAU_EXCEPTION_POINTERS@@PEAUEHExceptionRecord@@PEAH@Z 000000014001a620     libvcruntime:frame.obj
 0002:00009620       $unwind$__vcrt_FlsAlloc    000000014001a620     libvcruntime:winapi_downlevel.obj
 0002:00009620       $unwind$__vcrt_FlsFree     000000014001a620     libvcruntime:winapi_downlevel.obj
 0002:00009620       $unwind$__vcrt_FlsGetValue 000000014001a620     libvcruntime:winapi_downlevel.obj
 0002:00009620       $unwind$_IsExceptionObjectToBeDestroyed 000000014001a620     libvcruntime:ehhelpers.obj
 0002:00009620       $unwind$__vcrt_initialize_locks 000000014001a620     libvcruntime:locks.obj
 0002:00009620       $unwind$__vcrt_uninitialize_locks 000000014001a620     libvcruntime:locks.obj
 0002:00009620       $unwind$?pre_c_initialization@@YAHXZ 000000014001a620     libcmt:exe_main.obj
 0002:00009620       $unwind$_onexit            000000014001a620     libcmt:utility.obj
 0002:00009620       $unwind$__scrt_release_startup_lock 000000014001a620     libcmt:utility.obj
 0002:00009620       $unwind$__scrt_uninitialize_crt 000000014001a620     libcmt:utility.obj
 0002:00009620       $unwind$__scrt_initialize_onexit_tables 000000014001a620     libcmt:utility.obj
 0002:00009620       $unwind$initialize_pointers 000000014001a620     libucrt:initialization.obj
 0002:00009620       $unwind$uninitialize_allocated_memory 000000014001a620     libucrt:initialization.obj
 0002:00009620       $unwind$__acrt_uninitialize_stdio 000000014001a620     libucrt:_file.obj
 0002:00009620       $unwind$?exit_or_terminate_process@@YAXI_N@Z 000000014001a620     libucrt:exit.obj
 0002:00009620       $unwind$_configthreadlocale 000000014001a620     libucrt:wsetlocale.obj
 0002:00009620       $unwind$__acrt_allocate_buffer_for_argv 000000014001a620     libucrt:argv_parsing.obj
 0002:00009620       $unwind$__acrt_uninitialize_winapi_thunks 000000014001a620     libucrt:winapi_thunks.obj
 0002:00009620       $unwind$__acrt_AppPolicyGetProcessTerminationMethodInternal 000000014001a620     libucrt:winapi_thunks.obj
 0002:00009620       $unwind$__acrt_initialize_locks 000000014001a620     libucrt:locks.obj
 0002:00009620       $unwind$__acrt_uninitialize_locks 000000014001a620     libucrt:locks.obj
 0002:00009620       $unwind$__acrt_errno_map_os_error 000000014001a620     libucrt:errno.obj
 0002:00009620       $unwind$__acrt_errno_map_os_error_ptd 000000014001a620     libucrt:errno.obj
 0002:00009620       $unwind$__acrt_stdio_free_buffer_nolock 000000014001a620     libucrt:_freebuf.obj
 0002:00009620       $unwind$__acrt_update_locale_info 000000014001a620     libucrt:locale_update.obj
 0002:00009620       $unwind$__acrt_update_multibyte_info 000000014001a620     libucrt:locale_update.obj
 0002:00009620       $unwind$__acrt_update_locale_info_explicit 000000014001a620     libucrt:locale_update.obj
 0002:00009620       $unwind$__acrt_update_multibyte_info_explicit 000000014001a620     libucrt:locale_update.obj
 0002:00009620       $unwind$__acrt_get_process_end_policy 000000014001a620     libucrt:win_policies.obj
 0002:00009628       $unwind$??_Gexception@std@@UEAAPEAXI@Z 000000014001a628     aurora_runtime:memory.obj
 0002:00009628       $unwind$_FindAndUnlinkFrame 000000014001a628     libvcruntime:risctrnsctrl.obj
 0002:00009628       $unwind$?SetUnwindTryBlock@__FrameHandler3@@SAXPEA_KPEAU_xDISPATCHER_CONTEXT@@PEBU_s_FuncInfo@@H@Z 000000014001a628     libvcruntime:ehstate.obj
 0002:00009628       $unwind$??_Gbad_exception@std@@UEAAPEAXI@Z 000000014001a628     libvcruntime:frame.obj
 0002:00009628       $unwind$__vcrt_FlsSetValue 000000014001a628     libvcruntime:winapi_downlevel.obj
 0002:00009628       $unwind$__FrameUnwindFilter 000000014001a628     libvcruntime:ehhelpers.obj
 0002:00009628       $unwind$__scrt_unhandled_exception_filter 000000014001a628     libcmt:utility_desktop.obj
 0002:00009628       $unwind$_RTC_Initialize    000000014001a628     libcmt:initsect.obj
 0002:00009628       $unwind$_RTC_Terminate     000000014001a628     libcmt:initsect.obj
 0002:00009628       $unwind$??$common_initialize_environment_nolock@D@@YAHXZ 000000014001a628     libucrt:environment_initialization.obj
 0002:00009628       $unwind$_initterm_e        000000014001a628     libucrt:initterm.obj
 0002:00009628       $unwind$__acrt_LocaleNameToLCID 000000014001a628     libucrt:winapi_thunks.obj
 0002:00009628       $unwind$?replace_current_thread_locale_nolock@@YAXQEAU__acrt_ptd@@QEAU__crt_locale_data@@@Z 000000014001a628     libucrt:per_thread_data.obj
 0002:00009628       $unwind$__acrt_uninitialize_lowio 000000014001a628     libucrt:ioinit.obj
 0002:00009628       $unwind$?setSBCS@@YAXPEAU__crt_multibyte_data@@@Z 000000014001a628     libucrt:mbctype.obj
 0002:00009628       $unwind$__acrt_execute_uninitializers 000000014001a628     libucrt:shared_initialization.obj
 0002:00009628       $unwind$?free_crt_array_internal@@YAXQEAPEBX_K@Z 000000014001a628     libucrt:inittime.obj
 0002:00009628       $unwind$_updatetlocinfoEx_nolock 000000014001a628     libucrt:locale_refcounting.obj
 0002:00009628       $unwind$__C_specific_handler_noexcept 000000014001a628     libvcruntime:chandler_noexcept.obj
 0002:00009628       $unwind$strncpy_s          000000014001a628     libucrt:strncpy_s.obj
 0002:00009634       $unwind$__GSHandlerCheckCommon 000000014001a634     libcmt:gshandler.obj
 0002:00009634       $unwind$_strnicmp          000000014001a634     libucrt:strnicmp.obj
 0002:0000963c       $unwind$__GSHandlerCheck   000000014001a63c     libcmt:gshandler.obj
 0002:0000963c       $unwind$_GetImageBase      000000014001a63c     libvcruntime:risctrnsctrl.obj
 0002:0000963c       $unwind$_GetThrowImageBase 000000014001a63c     libvcruntime:risctrnsctrl.obj
 0002:0000963c       $unwind$__vcrt_initialize_ptd 000000014001a63c     libvcruntime:per_thread_data.obj
 0002:0000963c       $unwind$__vcrt_uninitialize_ptd 000000014001a63c     libvcruntime:per_thread_data.obj
 0002:0000963c       $unwind$__vcrt_getptd      000000014001a63c     libvcruntime:per_thread_data.obj
 0002:0000963c       $unwind$__vcrt_freefls     000000014001a63c     libvcruntime:per_thread_data.obj
 0002:0000963c       $unwind$?GetCurrentState@__FrameHandler3@@SAHPEA_KPEAU_xDISPATCHER_CONTEXT@@PEBU_s_FuncInfo@@@Z 000000014001a63c     libvcruntime:ehstate.obj
 0002:0000963c       $unwind$__std_terminate    000000014001a63c     libvcruntime:ehhelpers.obj
 0002:0000963c       $unwind$__current_exception 000000014001a63c     libvcruntime:ehhelpers.obj
 0002:0000963c       $unwind$__current_exception_context 000000014001a63c     libvcruntime:ehhelpers.obj
 0002:0000963c       $unwind$?post_pgo_initialization@@YAHXZ 000000014001a63c     libcmt:exe_main.obj
 0002:0000963c       $unwind$?pre_cpp_initialization@@YAXXZ 000000014001a63c     libcmt:exe_main.obj
 0002:0000963c       $unwind$mainCRTStartup     000000014001a63c     libcmt:exe_main.obj
 0002:0000963c       $unwind$atexit             000000014001a63c     libcmt:utility.obj
 0002:0000963c       $unwind$__scrt_acquire_startup_lock 000000014001a63c     libcmt:utility.obj
 0002:0000963c       $unwind$__scrt_initialize_crt 000000014001a63c     libcmt:utility.obj
 0002:0000963c       $unwind$__scrt_initialize_default_local_stdio_options 000000014001a63c     libcmt:default_local_stdio_options.obj
 0002:0000963c       $unwind$__scrt_is_managed_app 000000014001a63c     libcmt:utility_desktop.obj
 0002:0000963c       $unwind$__vcrt_initialize  000000014001a63c     libvcruntime:initialization.obj
 0002:0000963c       $unwind$__vcrt_uninitialize 000000014001a63c     libvcruntime:initialization.obj
 0002:0000963c       $unwind$__acrt_uninitialize 000000014001a63c     libucrt:initialization.obj
 0002:0000963c       $unwind$initialize_c       000000014001a63c     libucrt:initialization.obj
 0002:0000963c       $unwind$uninitialize_environment 000000014001a63c     libucrt:initialization.obj
 0002:0000963c       $unwind$uninitialize_allocated_io_buffers 000000014001a63c     libucrt:initialization.obj
 0002:0000963c       $unwind$__acrt_initialize_command_line 000000014001a63c     libucrt:argv_data.obj
 0002:0000963c       $unwind$_register_thread_local_exe_atexit_callback 000000014001a63c     libucrt:exit.obj
 0002:0000963c       $unwind$_get_initial_narrow_environment 000000014001a63c     libucrt:environment_initialization.obj
 0002:0000963c       $unwind$__dcrt_get_or_create_narrow_environment_nolock 000000014001a63c     libucrt:environment_initialization.obj
 0002:0000963c       $unwind$??$uninitialize_environment_internal@D@@YAXAEAPEAPEAD@Z 000000014001a63c     libucrt:environment_initialization.obj
 0002:0000963c       $unwind$??$uninitialize_environment_internal@_W@@YAXAEAPEAPEA_W@Z 000000014001a63c     libucrt:environment_initialization.obj
 0002:0000963c       $unwind$_set_fmode         000000014001a63c     libucrt:setmode.obj
 0002:0000963c       $unwind$abort              000000014001a63c     libucrt:abort.obj
 0002:0000963c       $unwind$strcpy_s           000000014001a63c     libucrt:strcpy_s.obj
 0002:0000963c       $unwind$__acrt_initialize_winapi_thunks 000000014001a63c     libucrt:winapi_thunks.obj
 0002:0000963c       $unwind$__acrt_AreFileApisANSI 000000014001a63c     libucrt:winapi_thunks.obj
 0002:0000963c       $unwind$__acrt_tls2_supported 000000014001a63c     libucrt:winapi_thunks.obj
 0002:0000963c       $unwind$__acrt_initialize_ptd 000000014001a63c     libucrt:per_thread_data.obj
 0002:0000963c       $unwind$__acrt_uninitialize_ptd 000000014001a63c     libucrt:per_thread_data.obj
 0002:0000963c       $unwind$__acrt_getptd      000000014001a63c     libucrt:per_thread_data.obj
 0002:0000963c       $unwind$__acrt_update_thread_multibyte_data 000000014001a63c     libucrt:mbctype.obj
 0002:0000963c       $unwind$__acrt_initialize_multibyte 000000014001a63c     libucrt:mbctype.obj
 0002:0000963c       $unwind$_invoke_watson     000000014001a63c     libucrt:invalid_parameter.obj
 0002:0000963c       $unwind$_errno             000000014001a63c     libucrt:errno.obj
 0002:0000963c       $unwind$__doserrno         000000014001a63c     libucrt:errno.obj
 0002:0000963c       $unwind$_fileno            000000014001a63c     libucrt:fileno.obj
 0002:0000963c       $unwind$__acrt_release_locale_ref 000000014001a63c     libucrt:locale_refcounting.obj
 0002:0000963c       $unwind$_get_osfhandle     000000014001a63c     libucrt:osfinfo.obj
 0002:0000963c       $unwind$?initialize_multibyte@@YAHXZ 000000014001a63c     libucrt:multibyte_initializer.obj
 0002:0000963c       $unwind$_isatty            000000014001a63c     libucrt:isatty.obj
 0002:0000963c       $unwind$?_strnicmp_validate_param@@YAHQEBD0_K@Z 000000014001a63c     libucrt:strnicmp.obj
 0002:0000963c       $unwind$__dcrt_terminate_console_output 000000014001a63c     libucrt:initcon.obj
 0002:00009648       $xdatasym                  000000014001a648     libcmt:amdsecgs.obj
 0002:00009650       $xdatasym$memcpy_repmovs   000000014001a650     libvcruntime:memcpy.obj
 0002:00009650       $xdatasym                  000000014001a650     libvcruntime:memcpy.obj
 0002:00009650       $xdatasym$memcpy_repmovs_Intel 000000014001a650     libvcruntime:memcpy_repmovs.obj
 0002:00009650       $xdatasym$memcpy_repmovs_amd 000000014001a650     libvcruntime:memcpy_repmovs_amd.obj
 0002:00009660       $xdatasym$memcpy           000000014001a660     libvcruntime:memcpy.obj
 0002:00009660       $xdatasym$memcpy_avx_ermsb_Intel 000000014001a660     libvcruntime:memcpy_avx_ermsb_aligned.obj
 0002:00009660       $xdatasym$memcpy_avx_ermsb_amd 000000014001a660     libvcruntime:memcpy_avx_ermsb_aligned_amd.obj
 0002:00009660       $xdatasym$memcpy_sse2_ermsb_Intel 000000014001a660     libvcruntime:memcpy_sse2_ermsb_aligned.obj
 0002:00009660       $xdatasym$memcpy_sse2_ermsb_amd 000000014001a660     libvcruntime:memcpy_sse2_ermsb_aligned_amd.obj
 0002:00009660       $xdatasym$memcpy_CopyDown_Intel 000000014001a660     libvcruntime:memcpy_CopyDown.obj
 0002:00009660       $xdatasym$memcpy_CopyDown_amd 000000014001a660     libvcruntime:memcpy_CopyDown_amd.obj
 0002:00009660       $xdatasym$_NLG_Notify      000000014001a660     libvcruntime:notify.obj
 0002:00009660       $xdatasym$__NLG_Dispatch2  000000014001a660     libvcruntime:notify.obj
 0002:00009660       $xdatasym$__NLG_Return2    000000014001a660     libvcruntime:notify.obj
 0002:00009660       $xdatasym$memset           000000014001a660     libvcruntime:memset.obj
 0002:00009660       $xdatasym$_guard_dispatch_icall 000000014001a660     libcmt:dispatchcfg.obj
 0002:00009664       $unwind$__std_exception_copy 000000014001a664     libvcruntime:std_exception.obj
 0002:00009664       $unwind$?CatchTryBlock@__FrameHandler3@@SAPEBU_s_TryBlockMapEntry@@PEBU_s_FuncInfo@@H@Z 000000014001a664     libvcruntime:risctrnsctrl.obj
 0002:00009664       $unwind$__vcrt_getptd_noexit 000000014001a664     libvcruntime:per_thread_data.obj
 0002:00009664       $unwind$?GetHandlerSearchState@__FrameHandler3@@SAHPEA_KPEAU_xDISPATCHER_CONTEXT@@PEBU_s_FuncInfo@@@Z 000000014001a664     libvcruntime:frame.obj
 0002:00009664       $unwind$?Is_bad_exception_allowed@@YAEPEBU_s_ESTypeList@@@Z 000000014001a664     libvcruntime:frame.obj
 0002:00009664       $unwind$_seh_filter_exe    000000014001a664     libucrt:exception_filter.obj
 0002:00009664       $unwind$__acrt_stdio_flush_nolock 000000014001a664     libucrt:fflush.obj
 0002:00009664       $unwind$__acrt_free_locale 000000014001a664     libucrt:locale_refcounting.obj
 0002:00009664       $unwind$__acrt_lowio_create_handle_array 000000014001a664     libucrt:osfinfo.obj
 0002:00009678       $unwind$_CxxThrowException 000000014001a678     libvcruntime:throw.obj
 0002:00009688       $unwind$__report_gsfailure 000000014001a688     libcmt:gs_report.obj
 0002:00009690       $unwind$capture_previous_context 000000014001a690     libcmt:gs_report.obj
 0002:0000969c       $unwind$__isa_available_init 000000014001a69c     libcmt:cpu_disp.obj
 0002:000096b0       $xdatasym                  000000014001a6b0     libvcruntime:longjmp.obj
 0002:000096b0       $xdatasym                  000000014001a6b0     libvcruntime:setjmp.obj
 0002:000096b0       $xdatasym                  000000014001a6b0     libvcruntime:memcpy_avx_ermsb_aligned.obj
 0002:000096b0       $xdatasym                  000000014001a6b0     libvcruntime:memcpy_avx_ermsb_aligned_amd.obj
 0002:000096b0       $xdatasym                  000000014001a6b0     libvcruntime:memcpy_sse2_ermsb_aligned.obj
 0002:000096b0       $xdatasym                  000000014001a6b0     libvcruntime:memcpy_sse2_ermsb_aligned_amd.obj
 0002:000096b0       $xdatasym                  000000014001a6b0     libcmt:guard_dispatch.obj
 0002:000096b8       $xdatasym                  000000014001a6b8     libcmt:guard_xfg_dispatch.obj
 0002:000096c0       $xdatasym                  000000014001a6c0     libvcruntime:memcpy_repmovs.obj
 0002:000096c0       $xdatasym                  000000014001a6c0     libvcruntime:memcpy_CopyDown.obj
 0002:000096c0       $xdatasym                  000000014001a6c0     libvcruntime:memcpy_repmovs_amd.obj
 0002:000096c0       $xdatasym                  000000014001a6c0     libvcruntime:memcpy_CopyDown_amd.obj
 0002:000096c0       $unwind$?FrameUnwindToEmptyState@__FrameHandler3@@SAXPEA_KPEAU_xDISPATCHER_CONTEXT@@PEBU_s_FuncInfo@@@Z 000000014001a6c0     libvcruntime:risctrnsctrl.obj
 0002:000096c0       $unwind$__vcrt_InitializeCriticalSectionEx 000000014001a6c0     libvcruntime:winapi_downlevel.obj
 0002:000096c0       $unwind$?update_locale_slow@__crt_cached_ptd_host@@AEAAXXZ 000000014001a6c0     libucrt:output.obj
 0002:000096c0       $unwind$?internal_get_ptd_head_slow@@YAPEAU__acrt_ptd@@XZ 000000014001a6c0     libucrt:per_thread_data.obj
 0002:000096c0       $unwind$??0_LocaleUpdate@@QEAA@QEAU__crt_locale_pointers@@@Z 000000014001a6c0     libucrt:mbctype.obj
 0002:000096c0       $unwind$__acrt_execute_initializers 000000014001a6c0     libucrt:shared_initialization.obj
 0002:000096c0       $unwind$?value@?$dual_state_global@P6AXPEB_W00I_K@Z@__crt_state_management@@QEAAAEAP6AXPEB_W00I_K@ZAEAV__crt_cached_ptd_host@@@Z 000000014001a6c0     libucrt:invalid_parameter.obj
 0002:000096c0       $unwind$_close_nolock_internal 000000014001a6c0     libucrt:close.obj
 0002:000096d0       $unwind$?GetEstablisherFrame@__FrameHandler3@@SAPEA_KPEA_KPEAU_xDISPATCHER_CONTEXT@@PEBU_s_FuncInfo@@0@Z 000000014001a6d0     libvcruntime:risctrnsctrl.obj
 0002:000096ec       $unwind$?UnwindNestedFrames@__FrameHandler3@@SAXPEA_KPEAUEHExceptionRecord@@PEAU_CONTEXT@@0PEAXPEBU_s_FuncInfo@@HHPEBU_s_HandlerType@@PEAU_xDISPATCHER_CONTEXT@@E@Z 000000014001a6ec     libvcruntime:risctrnsctrl.obj
 0002:00009700       $unwind$?GetRangeOfTrysToCheck@__FrameHandler3@@SA?AU?$pair@Viterator@TryBlockMap@__FrameHandler3@@V123@@std@@AEAVTryBlockMap@1@HPEAU_xDISPATCHER_CONTEXT@@PEBU_s_FuncInfo@@H@Z 000000014001a700     libvcruntime:risctrnsctrl.obj
 0002:00009700       $unwind$__C_specific_handler 000000014001a700     libvcruntime:riscchandler.obj
 0002:0000971c       $unwind$__CxxFrameHandler3 000000014001a71c     libvcruntime:risctrnsctrl.obj
 0002:00009730       $unwind$??$_CallSETranslator@V__FrameHandler3@@@@YAHPEAUEHExceptionRecord@@PEA_KPEAU_CONTEXT@@PEAU_xDISPATCHER_CONTEXT@@PEBU_s_FuncInfo@@K1H@Z 000000014001a730     libvcruntime:risctrnsctrl.obj
 0002:00009750       $unwind$?filt$0@?0???$_CallSETranslator@V__FrameHandler3@@@@YAHPEAUEHExceptionRecord@@PEA_KPEAU_CONTEXT@@PEAU_xDISPATCHER_CONTEXT@@PEBU_s_FuncInfo@@K1H@Z@4HA 000000014001a750     libvcruntime:risctrnsctrl.obj
 0002:0000975c       $unwind$?FrameUnwindToState@__FrameHandler3@@SAXPEA_KPEAU_xDISPATCHER_CONTEXT@@PEBU_s_FuncInfo@@H@Z 000000014001a75c     libvcruntime:frame.obj
 0002:000097a8       $unwind$?filt$0@?0??FrameUnwindToState@__FrameHandler3@@SAXPEA_KPEAU_xDISPATCHER_CONTEXT@@PEBU_s_FuncInfo@@H@Z@4HA 000000014001a7a8     libvcruntime:frame.obj
 0002:000097a8       $unwind$?fin$1@?0??FrameUnwindToState@__FrameHandler3@@SAXPEA_KPEAU_xDISPATCHER_CONTEXT@@PEBU_s_FuncInfo@@H@Z@4HA 000000014001a7a8     libvcruntime:frame.obj
 0002:000097a8       $unwind$?filt$0@?0??CxxCallCatchBlock@__FrameHandler3@@SAPEAXPEAU_EXCEPTION_RECORD@@@Z@4HA 000000014001a7a8     libvcruntime:frame.obj
 0002:000097a8       $unwind$_IsNonwritableInCurrentImage$filt$0 000000014001a7a8     libcmt:pesect.obj
 0002:000097a8       $unwind$?filt$0@?0??__scrt_common_main_seh@@YAHXZ@4HA 000000014001a7a8     libcmt:exe_main.obj
 0002:000097a8       $unwind$?filt$0@?0???R<lambda_6e4b09c48022b2350581041d5f6b0c4c>@@QEBA@XZ@4HA 000000014001a7a8     libucrt:exit.obj
 0002:000097a8       $unwind$?fin$0@?0???$?RV<lambda_d80eeec6fff315bfe5c115232f3240e3>@@AEAV<lambda_6e4b09c48022b2350581041d5f6b0c4c>@@V<lambda_2358e3775559c9db80273638284d5e45>@@@?$__crt_seh_guarded_call@X@@QEAAX$$QEAV<lambda_d80eeec6fff315bfe5c115232f3240e3>@@AEAV<lambda_6e4b09c48022b2350581041d5f6b0c4c>@@$$QEAV<lambda_2358e3775559c9db80273638284d5e45>@@@Z@4HA 000000014001a7a8     libucrt:exit.obj
 0002:000097a8       $unwind$?fin$0@?0???$?RV<lambda_410d79af7f07d98d83a3f525b3859a53>@@AEAV<lambda_3e16ef9562a7dcce91392c22ab16ea36>@@V<lambda_38119f0e861e05405d8a144b9b982f0a>@@@?$__crt_seh_guarded_call@X@@QEAAX$$QEAV<lambda_410d79af7f07d98d83a3f525b3859a53>@@AEAV<lambda_3e16ef9562a7dcce91392c22ab16ea36>@@$$QEAV<lambda_38119f0e861e05405d8a144b9b982f0a>@@@Z@4HA 000000014001a7a8     libucrt:wsetlocale.obj
 0002:000097a8       $unwind$?fin$0@?0???$?RV<lambda_638799b9deba96c50f710eeac98168cd>@@AEAV<lambda_22ebabd17bc4fa466a2aca6d8deb888d>@@V<lambda_a6f7d7db0129f75315ebf26d50c089f1>@@@?$__crt_seh_guarded_call@H@@QEAAH$$QEAV<lambda_638799b9deba96c50f710eeac98168cd>@@AEAV<lambda_22ebabd17bc4fa466a2aca6d8deb888d>@@$$QEAV<lambda_a6f7d7db0129f75315ebf26d50c089f1>@@@Z@4HA 000000014001a7a8     libucrt:onexit.obj
 0002:000097a8       $unwind$?fin$0@?0???$?RV<lambda_7777bce6b2f8c936911f934f8298dc43>@@AEAV<lambda_f03950bc5685219e0bcd2087efbe011e>@@V<lambda_3883c3dff614d5e0c5f61bb1ac94921c>@@@?$__crt_seh_guarded_call@H@@QEAAH$$QEAV<lambda_7777bce6b2f8c936911f934f8298dc43>@@AEAV<lambda_f03950bc5685219e0bcd2087efbe011e>@@$$QEAV<lambda_3883c3dff614d5e0c5f61bb1ac94921c>@@@Z@4HA 000000014001a7a8     libucrt:onexit.obj
 0002:000097a8       $unwind$?fin$0@?0???$?RV<lambda_0ae27a3a962d80f24befdcbee591983d>@@AEAV<lambda_8d0ee55de4b1038c4002e0adecdf1839>@@V<lambda_dc504788e8f1664fe9b84e20bfb512f2>@@@?$__crt_seh_guarded_call@X@@QEAAX$$QEAV<lambda_0ae27a3a962d80f24befdcbee591983d>@@AEAV<lambda_8d0ee55de4b1038c4002e0adecdf1839>@@$$QEAV<lambda_dc504788e8f1664fe9b84e20bfb512f2>@@@Z@4HA 000000014001a7a8     libucrt:per_thread_data.obj
 0002:000097a8       $unwind$?fin$0@?0???$?RV<lambda_aa87e3671a710a21b5dc78c0bdf72e11>@@AEAV<lambda_92619d2358a28f41a33ba319515a20b9>@@V<lambda_6992ecaafeb10aed2b74cb1fae11a551>@@@?$__crt_seh_guarded_call@X@@QEAAX$$QEAV<lambda_aa87e3671a710a21b5dc78c0bdf72e11>@@AEAV<lambda_92619d2358a28f41a33ba319515a20b9>@@$$QEAV<lambda_6992ecaafeb10aed2b74cb1fae11a551>@@@Z@4HA 000000014001a7a8     libucrt:per_thread_data.obj
 0002:000097a8       $unwind$?fin$0@?0???$?RV<lambda_f2e299630e499de9f9a165e60fcd3db5>@@AEAV<lambda_2ae9d31cdba2644fcbeaf08da7c24588>@@V<lambda_40d01ff24d0e7b3814fdbdcee8eab3c7>@@@?$__crt_seh_guarded_call@X@@QEAAX$$QEAV<lambda_f2e299630e499de9f9a165e60fcd3db5>@@AEAV<lambda_2ae9d31cdba2644fcbeaf08da7c24588>@@$$QEAV<lambda_40d01ff24d0e7b3814fdbdcee8eab3c7>@@@Z@4HA 000000014001a7a8     libucrt:per_thread_data.obj
 0002:000097a8       $unwind$?fin$0@?0???$?RV<lambda_2d41944a1d46af3157314b8a01080d33>@@AEAV<lambda_8f455de75cd7d7f24b4096f044d8b9e6>@@V<lambda_aa500f224e6afead328df44964fe2772>@@@?$__crt_seh_guarded_call@X@@QEAAX$$QEAV<lambda_2d41944a1d46af3157314b8a01080d33>@@AEAV<lambda_8f455de75cd7d7f24b4096f044d8b9e6>@@$$QEAV<lambda_aa500f224e6afead328df44964fe2772>@@@Z@4HA 000000014001a7a8     libucrt:per_thread_data.obj
 0002:000097a8       $unwind$__acrt_initialize_lowio$fin$0 000000014001a7a8     libucrt:ioinit.obj
 0002:000097a8       $unwind$?fin$0@?0??update_thread_multibyte_data_internal@@YAPEAU__crt_multibyte_data@@QEAU__acrt_ptd@@QEAPEAU1@@Z@4HA 000000014001a7a8     libucrt:mbctype.obj
 0002:000097a8       $unwind$?fin$0@?0???$?RV<lambda_efdfa57d1f175319df784efa44bb7b81>@@AEAV<lambda_5f0a4c1567f8adc6734073e5d1e1b35c>@@V<lambda_2e8a7d3640ea6ccb4c2413664c2db6fd>@@@?$__crt_seh_guarded_call@X@@QEAAX$$QEAV<lambda_efdfa57d1f175319df784efa44bb7b81>@@AEAV<lambda_5f0a4c1567f8adc6734073e5d1e1b35c>@@$$QEAV<lambda_2e8a7d3640ea6ccb4c2413664c2db6fd>@@@Z@4HA 000000014001a7a8     libucrt:mbctype.obj
 0002:000097a8       $unwind$raise$fin$0        000000014001a7a8     libucrt:signal.obj
 0002:000097a8       $unwind$?fin$0@?0???$?RV<lambda_450d765d439847d4c735a33c368b5fc0>@@AEAV<lambda_44731a7d0e6d81c3e6aa82d741081786>@@V<lambda_601a2a7da3b7a96e9554ac7215c4b07c>@@@?$__crt_seh_guarded_call@P6AXH@Z@@QEAAP6AXH@Z$$QEAV<lambda_450d765d439847d4c735a33c368b5fc0>@@AEAV<lambda_44731a7d0e6d81c3e6aa82d741081786>@@$$QEAV<lambda_601a2a7da3b7a96e9554ac7215c4b07c>@@@Z@4HA 000000014001a7a8     libucrt:signal.obj
 0002:000097a8       $unwind$?fin$0@?0???$?RV<lambda_842d9ff0dc9ef11c61343bbaebe7f885>@@AEAV<lambda_c5860995281e5c4ce005b3de8f5874ee>@@V<lambda_d90129c13df834fdcbf8d2b88dafcf2d>@@@?$__crt_seh_guarded_call@X@@QEAAX$$QEAV<lambda_842d9ff0dc9ef11c61343bbaebe7f885>@@AEAV<lambda_c5860995281e5c4ce005b3de8f5874ee>@@$$QEAV<lambda_d90129c13df834fdcbf8d2b88dafcf2d>@@@Z@4HA 000000014001a7a8     libucrt:fflush.obj
 0002:000097a8       $unwind$?fin$0@?0???$?RV<lambda_886d6c58226a84441f68b9f2b8217b83>@@AEAV<lambda_ab61a845afdef5b7c387490eaf3616ee>@@V<lambda_f7f22ab5edc0698d5f6905b0d3f44752>@@@?$__crt_seh_guarded_call@X@@QEAAX$$QEAV<lambda_886d6c58226a84441f68b9f2b8217b83>@@AEAV<lambda_ab61a845afdef5b7c387490eaf3616ee>@@$$QEAV<lambda_f7f22ab5edc0698d5f6905b0d3f44752>@@@Z@4HA 000000014001a7a8     libucrt:fflush.obj
 0002:000097a8       $unwind$_fcloseall$fin$0   000000014001a7a8     libucrt:closeall.obj
 0002:000097a8       $unwind$__acrt_update_thread_locale_data$fin$0 000000014001a7a8     libucrt:locale_refcounting.obj
 0002:000097a8       $unwind$__acrt_lowio_ensure_fh_exists$fin$0 000000014001a7a8     libucrt:osfinfo.obj
 0002:000097a8       $unwind$?fin$0@?0???$?RV<lambda_a37b2b86f63e897a80ea819b0eb08c01>@@AEAV<lambda_38ce7e780aa69e748d6df282ebc68efe>@@V<lambda_99fb1378e971ab6e7edea83e3a7a83a2>@@@?$__crt_seh_guarded_call@H@@QEAAH$$QEAV<lambda_a37b2b86f63e897a80ea819b0eb08c01>@@AEAV<lambda_38ce7e780aa69e748d6df282ebc68efe>@@$$QEAV<lambda_99fb1378e971ab6e7edea83e3a7a83a2>@@@Z@4HA 000000014001a7a8     libucrt:commit.obj
 0002:000097a8       $unwind$?fin$0@?0???$?RV<lambda_ad8af0d99a0adf03d037d7dffe354bb5>@@AEAV<lambda_c9ba49e555ba839a7b07aa3fbecb7617>@@V<lambda_2f1ebd5d68526518146ae959c9e734c8>@@@?$__crt_seh_guarded_call@H@@QEAAH$$QEAV<lambda_ad8af0d99a0adf03d037d7dffe354bb5>@@AEAV<lambda_c9ba49e555ba839a7b07aa3fbecb7617>@@$$QEAV<lambda_2f1ebd5d68526518146ae959c9e734c8>@@@Z@4HA 000000014001a7a8     libucrt:close.obj
 0002:000097b0       $unwind$?CxxCallCatchBlock@__FrameHandler3@@SAPEAXPEAU_EXCEPTION_RECORD@@@Z 000000014001a7b0     libvcruntime:frame.obj
 0002:000097ec       $unwind$?fin$1@?0??CxxCallCatchBlock@__FrameHandler3@@SAPEAXPEAU_EXCEPTION_RECORD@@@Z@4HA 000000014001a7ec     libvcruntime:frame.obj
 0002:000097ec       $unwind$__DestructExceptionObject$filt$0 000000014001a7ec     libvcruntime:ehhelpers.obj
 0002:000097f8       $unwind$?IsInExceptionSpec@@YAEPEAUEHExceptionRecord@@PEBU_s_ESTypeList@@@Z 000000014001a7f8     libvcruntime:frame.obj
 0002:00009810       $unwind$??$TypeMatchHelper@V__FrameHandler3@@@@YAHPEBU_s_HandlerType@@PEBU_s_CatchableType@@PEBU_s_ThrowInfo@@@Z 000000014001a810     libvcruntime:frame.obj
 0002:00009810       $unwind$??R<lambda_22ebabd17bc4fa466a2aca6d8deb888d>@@QEBA@XZ 000000014001a810     libucrt:onexit.obj
 0002:00009810       $unwind$??R<lambda_f03950bc5685219e0bcd2087efbe011e>@@QEBA@XZ 000000014001a810     libucrt:onexit.obj
 0002:00009810       $unwind$__acrt_DownlevelLocaleNameToLCID 000000014001a810     libucrt:lcidtoname_downlevel.obj
 0002:00009828       $unwind$??$BuildCatchObjectHelperInternal@V__FrameHandler3@@@@YAHPEAUEHExceptionRecord@@PEAXPEBU_s_HandlerType@@PEBU_s_CatchableType@@@Z 000000014001a828     libvcruntime:frame.obj
 0002:00009868       $unwind$??$BuildCatchObjectInternal@V__FrameHandler3@@@@YAXPEAUEHExceptionRecord@@PEAXPEBU_s_HandlerType@@PEBU_s_CatchableType@@@Z 000000014001a868     libvcruntime:frame.obj
 0002:00009894       $unwind$??$__InternalCxxFrameHandler@V__FrameHandler3@@@@YA?AW4_EXCEPTION_DISPOSITION@@PEAUEHExceptionRecord@@PEA_KPEAU_CONTEXT@@PEAU_xDISPATCHER_CONTEXT@@PEBU_s_FuncInfo@@H1E@Z 000000014001a894     libvcruntime:frame.obj
 0002:000098ac       $unwind$??$FindHandler@V__FrameHandler3@@@@YAXPEAUEHExceptionRecord@@PEA_KPEAU_CONTEXT@@PEAU_xDISPATCHER_CONTEXT@@PEBU_s_FuncInfo@@EH1@Z 000000014001a8ac     libvcruntime:frame.obj
 0002:000098cc       $unwind$??$CatchIt@V__FrameHandler3@@@@YAXPEAUEHExceptionRecord@@PEA_KPEAU_CONTEXT@@PEAU_xDISPATCHER_CONTEXT@@PEBU_s_FuncInfo@@PEBU_s_HandlerType@@PEBU_s_CatchableType@@PEBU_s_TryBlockMapEntry@@H1EE@Z 000000014001a8cc     libvcruntime:frame.obj
 0002:000098e4       $unwind$??$FindHandlerForForeignException@V__FrameHandler3@@@@YAXPEAUEHExceptionRecord@@PEA_KPEAU_CONTEXT@@PEAU_xDISPATCHER_CONTEXT@@PEBU_s_FuncInfo@@HH1@Z 000000014001a8e4     libvcruntime:frame.obj
 0002:00009900       $unwind$?try_get_function@@YAPEAXW4function_id@?A0x14174aea@@QEBDQEBW4module_id@2@2@Z 000000014001a900     libvcruntime:winapi_downlevel.obj
 0002:00009920       $xdatasym$_CallSettingFrame 000000014001a920     libvcruntime:handlers.obj
 0002:00009920       $xdatasym                  000000014001a920     libvcruntime:handlers.obj
 0002:00009928       $unwind$__DestructExceptionObject 000000014001a928     libvcruntime:ehhelpers.obj
 0002:00009948       $unwind$_IsNonwritableInCurrentImage 000000014001a948     libcmt:pesect.obj
 0002:00009970       $xdatasym                  000000014001a970     libvcruntime:notify.obj
 0002:00009970       $xdatasym$memset_repstos   000000014001a970     libvcruntime:memset.obj
 0002:00009970       $xdatasym                  000000014001a970     libvcruntime:memset.obj
 0002:0000997c       $unwind$?__scrt_common_main_seh@@YAHXZ 000000014001a97c     libcmt:exe_main.obj
 0002:000099b4       $unwind$__scrt_is_nonwritable_in_current_image 000000014001a9b4     libcmt:utility.obj
 0002:000099d4       $unwind$__scrt_is_nonwritable_in_current_image$filt$0 000000014001a9d4     libcmt:utility.obj
 0002:000099dc       $unwind$__security_init_cookie 000000014001a9dc     libcmt:gs_support.obj
 0002:000099e8       $unwind$__scrt_fastfail    000000014001a9e8     libcmt:utility_desktop.obj
 0002:000099f8       $unwind$__acrt_initialize_stdio 000000014001a9f8     libucrt:_file.obj
 0002:000099f8       $unwind$?initialize_stdio_handles_nolock@@YAXXZ 000000014001a9f8     libucrt:ioinit.obj
 0002:000099f8       $unwind$__GSHandlerCheck_EH 000000014001a9f8     libcmt:gshandlereh.obj
 0002:00009a10       $unwind$?get_raw_ptd@__crt_cached_ptd_host@@QEAAPEAU__acrt_ptd@@XZ 000000014001aa10     libucrt:output.obj
 0002:00009a18       $chain$0$?get_raw_ptd@__crt_cached_ptd_host@@QEAAPEAU__acrt_ptd@@XZ 000000014001aa18     libucrt:output.obj
 0002:00009a2c       $chain$1$?get_raw_ptd@__crt_cached_ptd_host@@QEAAPEAU__acrt_ptd@@XZ 000000014001aa2c     libucrt:output.obj
 0002:00009a3c       $unwind$?try_cor_exit_process@@YAXI@Z 000000014001aa3c     libucrt:exit.obj
 0002:00009a50       $ip2state$?try_cor_exit_process@@YAXI@Z 000000014001aa50     libucrt:exit.obj
 0002:00009a58       $unwind$?common_exit@@YAXHW4_crt_exit_cleanup_mode@@W4_crt_exit_return_mode@@@Z 000000014001aa58     libucrt:exit.obj
 0002:00009a6c       $stateUnwindMap$?common_exit@@YAXHW4_crt_exit_cleanup_mode@@W4_crt_exit_return_mode@@@Z 000000014001aa6c     libucrt:exit.obj
 0002:00009a6c       $stateUnwindMap$_execute_onexit_table 000000014001aa6c     libucrt:onexit.obj
 0002:00009a6c       $stateUnwindMap$__dcrt_uninitialize_environments_nolock 000000014001aa6c     libucrt:environment_initialization.obj
 0002:00009a6c       $stateUnwindMap$__acrt_getptd_head 000000014001aa6c     libucrt:per_thread_data.obj
 0002:00009a6c       $stateUnwindMap$__acrt_getptd_noexit 000000014001aa6c     libucrt:per_thread_data.obj
 0002:00009a6c       $stateUnwindMap$__acrt_getptd_noexit_explicit 000000014001aa6c     libucrt:per_thread_data.obj
 0002:00009a78       $ip2state$?common_exit@@YAXHW4_crt_exit_cleanup_mode@@W4_crt_exit_return_mode@@@Z 000000014001aa78     libucrt:exit.obj
 0002:00009a80       $unwind$??R<lambda_6e4b09c48022b2350581041d5f6b0c4c>@@QEBA@XZ 000000014001aa80     libucrt:exit.obj
 0002:00009aa0       $unwind$??$?RV<lambda_d80eeec6fff315bfe5c115232f3240e3>@@AEAV<lambda_6e4b09c48022b2350581041d5f6b0c4c>@@V<lambda_2358e3775559c9db80273638284d5e45>@@@?$__crt_seh_guarded_call@X@@QEAAX$$QEAV<lambda_d80eeec6fff315bfe5c115232f3240e3>@@AEAV<lambda_6e4b09c48022b2350581041d5f6b0c4c>@@$$QEAV<lambda_2358e3775559c9db80273638284d5e45>@@@Z 000000014001aaa0     libucrt:exit.obj
 0002:00009ac4       $unwind$_callnewh          000000014001aac4     libucrt:new_handler.obj
 0002:00009ad0       $unwind$_query_new_handler 000000014001aad0     libucrt:new_handler.obj
 0002:00009af0       $unwind$_query_new_handler$fin$0 000000014001aaf0     libucrt:new_handler.obj
 0002:00009af8       $unwind$_set_new_handler   000000014001aaf8     libucrt:new_handler.obj
 0002:00009b1c       $unwind$_set_new_handler$fin$0 000000014001ab1c     libucrt:new_handler.obj
 0002:00009b24       $unwind$__acrt_uninitialize_locale 000000014001ab24     libucrt:wsetlocale.obj
 0002:00009b24       $unwind$__acrt_get_sigabrt_handler 000000014001ab24     libucrt:signal.obj
 0002:00009b2c       $unwind$??$?RV<lambda_410d79af7f07d98d83a3f525b3859a53>@@AEAV<lambda_3e16ef9562a7dcce91392c22ab16ea36>@@V<lambda_38119f0e861e05405d8a144b9b982f0a>@@@?$__crt_seh_guarded_call@X@@QEAAX$$QEAV<lambda_410d79af7f07d98d83a3f525b3859a53>@@AEAV<lambda_3e16ef9562a7dcce91392c22ab16ea36>@@$$QEAV<lambda_38119f0e861e05405d8a144b9b982f0a>@@@Z 000000014001ab2c     libucrt:wsetlocale.obj
 0002:00009b54       $unwind$_configure_narrow_argv 000000014001ab54     libucrt:argv_parsing.obj
 0002:00009b68       $unwind$??$parse_command_line@D@@YAXPEADPEAPEAD0PEA_K2@Z 000000014001ab68     libucrt:argv_parsing.obj
 0002:00009b84       $unwind$_register_onexit_function 000000014001ab84     libucrt:onexit.obj
 0002:00009b8c       $unwind$_execute_onexit_table 000000014001ab8c     libucrt:onexit.obj
 0002:00009ba0       $ip2state$_execute_onexit_table 000000014001aba0     libucrt:onexit.obj
 0002:00009ba8       $unwind$??$?RV<lambda_638799b9deba96c50f710eeac98168cd>@@AEAV<lambda_22ebabd17bc4fa466a2aca6d8deb888d>@@V<lambda_a6f7d7db0129f75315ebf26d50c089f1>@@@?$__crt_seh_guarded_call@H@@QEAAH$$QEAV<lambda_638799b9deba96c50f710eeac98168cd>@@AEAV<lambda_22ebabd17bc4fa466a2aca6d8deb888d>@@$$QEAV<lambda_a6f7d7db0129f75315ebf26d50c089f1>@@@Z 000000014001aba8     libucrt:onexit.obj
 0002:00009bcc       $unwind$??$?RV<lambda_7777bce6b2f8c936911f934f8298dc43>@@AEAV<lambda_f03950bc5685219e0bcd2087efbe011e>@@V<lambda_3883c3dff614d5e0c5f61bb1ac94921c>@@@?$__crt_seh_guarded_call@H@@QEAAH$$QEAV<lambda_7777bce6b2f8c936911f934f8298dc43>@@AEAV<lambda_f03950bc5685219e0bcd2087efbe011e>@@$$QEAV<lambda_3883c3dff614d5e0c5f61bb1ac94921c>@@@Z 000000014001abcc     libucrt:onexit.obj
 0002:00009bf0       $unwind$__dcrt_uninitialize_environments_nolock 000000014001abf0     libucrt:environment_initialization.obj
 0002:00009c00       $unwind$??$free_environment@D@@YAXQEAPEAD@Z 000000014001ac00     libucrt:environment_initialization.obj
 0002:00009c00       $unwind$??$free_environment@_W@@YAXQEAPEA_W@Z 000000014001ac00     libucrt:environment_initialization.obj
 0002:00009c00       $unwind$_initterm          000000014001ac00     libucrt:initterm.obj
 0002:00009c0c       $unwind$??$create_environment@D@@YAQEAPEADQEAD@Z 000000014001ac0c     libucrt:environment_initialization.obj
 0002:00009c0c       $unwind$_mbtowc_internal   000000014001ac0c     libucrt:mbtowc.obj
 0002:00009c0c       $unwind$??$__acrt_convert_wcs_mbs_cp@D_WV<lambda_7c9dea7b4ca7285d2cdb541a38da6275>@@U__crt_win32_buffer_internal_dynamic_resizing@@@@YAHQEBDAEAV?$__crt_win32_buffer@_WU__crt_win32_buffer_internal_dynamic_resizing@@@@AEBV<lambda_7c9dea7b4ca7285d2cdb541a38da6275>@@I@Z 000000014001ac0c     libucrt:argv_wildcards.obj
 0002:00009c24       $unwind$??$initialize_environment_by_cloning_nolock@D@@YAHXZ 000000014001ac24     libucrt:environment_initialization.obj
 0002:00009c38       $unwind$_set_new_mode      000000014001ac38     libucrt:new_mode.obj
 0002:00009c40       $xdatasym                  000000014001ac40     libucrt:strcmp.obj
 0002:00009c48       $xdatasym                  000000014001ac48     libucrt:strlen.obj
 0002:00009c50       $xdatasym                  000000014001ac50     libucrt:strncmp.obj
 0002:00009c54       $unwind$terminate          000000014001ac54     libucrt:terminate.obj
 0002:00009c74       $unwind$__acrt_CompareStringEx 000000014001ac74     libucrt:winapi_thunks.obj
 0002:00009c74       $unwind$__acrt_LCMapStringEx 000000014001ac74     libucrt:winapi_thunks.obj
 0002:00009c88       $unwind$?try_get_function_slow@@YAPEAXW4function_id@?A0x391cf84c@@QEBDQEBW4module_id@2@2@Z 000000014001ac88     libucrt:winapi_thunks.obj
 0002:00009ca4       $unwind$__acrt_initialize_heap 000000014001aca4     libucrt:heap_handle.obj
 0002:00009cac       $unwind$__acrt_getptd_head 000000014001acac     libucrt:per_thread_data.obj
 0002:00009cbc       $unwind$__acrt_getptd_noexit 000000014001acbc     libucrt:per_thread_data.obj
 0002:00009cd0       $unwind$__acrt_getptd_noexit_explicit 000000014001acd0     libucrt:per_thread_data.obj
 0002:00009ce4       $unwind$?destroy_fls@@YAXPEAX@Z 000000014001ace4     libucrt:per_thread_data.obj
 0002:00009ce4       $unwind$__acrt_locale_free_numeric 000000014001ace4     libucrt:initnum.obj
 0002:00009ce4       $unwind$__acrt_locale_free_lc_time_if_unreferenced 000000014001ace4     libucrt:locale_refcounting.obj
 0002:00009cec       $unwind$?construct_ptd_array@@YAXQEAU__acrt_ptd@@@Z 000000014001acec     libucrt:per_thread_data.obj
 0002:00009cf4       $unwind$?destroy_ptd_array@@YAXQEAU__acrt_ptd@@@Z 000000014001acf4     libucrt:per_thread_data.obj
 0002:00009cfc       $unwind$??$?RV<lambda_0ae27a3a962d80f24befdcbee591983d>@@AEAV<lambda_8d0ee55de4b1038c4002e0adecdf1839>@@V<lambda_dc504788e8f1664fe9b84e20bfb512f2>@@@?$__crt_seh_guarded_call@X@@QEAAX$$QEAV<lambda_0ae27a3a962d80f24befdcbee591983d>@@AEAV<lambda_8d0ee55de4b1038c4002e0adecdf1839>@@$$QEAV<lambda_dc504788e8f1664fe9b84e20bfb512f2>@@@Z 000000014001acfc     libucrt:per_thread_data.obj
 0002:00009d20       $unwind$??$?RV<lambda_aa87e3671a710a21b5dc78c0bdf72e11>@@AEAV<lambda_92619d2358a28f41a33ba319515a20b9>@@V<lambda_6992ecaafeb10aed2b74cb1fae11a551>@@@?$__crt_seh_guarded_call@X@@QEAAX$$QEAV<lambda_aa87e3671a710a21b5dc78c0bdf72e11>@@AEAV<lambda_92619d2358a28f41a33ba319515a20b9>@@$$QEAV<lambda_6992ecaafeb10aed2b74cb1fae11a551>@@@Z 000000014001ad20     libucrt:per_thread_data.obj
 0002:00009d44       $unwind$??$?RV<lambda_f2e299630e499de9f9a165e60fcd3db5>@@AEAV<lambda_2ae9d31cdba2644fcbeaf08da7c24588>@@V<lambda_40d01ff24d0e7b3814fdbdcee8eab3c7>@@@?$__crt_seh_guarded_call@X@@QEAAX$$QEAV<lambda_f2e299630e499de9f9a165e60fcd3db5>@@AEAV<lambda_2ae9d31cdba2644fcbeaf08da7c24588>@@$$QEAV<lambda_40d01ff24d0e7b3814fdbdcee8eab3c7>@@@Z 000000014001ad44     libucrt:per_thread_data.obj
 0002:00009d68       $unwind$??$?RV<lambda_2d41944a1d46af3157314b8a01080d33>@@AEAV<lambda_8f455de75cd7d7f24b4096f044d8b9e6>@@V<lambda_aa500f224e6afead328df44964fe2772>@@@?$__crt_seh_guarded_call@X@@QEAAX$$QEAV<lambda_2d41944a1d46af3157314b8a01080d33>@@AEAV<lambda_8f455de75cd7d7f24b4096f044d8b9e6>@@$$QEAV<lambda_aa500f224e6afead328df44964fe2772>@@@Z 000000014001ad68     libucrt:per_thread_data.obj
 0002:00009d8c       $unwind$__acrt_initialize_lowio 000000014001ad8c     libucrt:ioinit.obj
 0002:00009dac       $unwind$?initialize_inherited_file_handles_nolock@@YAXXZ 000000014001adac     libucrt:ioinit.obj
 0002:00009dc8       $unwind$_setmbcp_nolock    000000014001adc8     libucrt:mbctype.obj
 0002:00009de8       $unwind$?getSystemCP@@YAHH@Z 000000014001ade8     libucrt:mbctype.obj
 0002:00009de8       $unwind$?__mbrtowc_utf8@__crt_mbstring@@YA_KPEA_WPEBD_KPEAU_Mbstatet@@AEAV__crt_cached_ptd_host@@@Z 000000014001ade8     libucrt:mbrtowc.obj
 0002:00009de8       $unwind$__dcrt_lowio_ensure_console_output_initialized 000000014001ade8     libucrt:initcon.obj
 0002:00009df0       $unwind$?update_thread_multibyte_data_internal@@YAPEAU__crt_multibyte_data@@QEAU__acrt_ptd@@QEAPEAU1@@Z 000000014001adf0     libucrt:mbctype.obj
 0002:00009e18       $unwind$?setmbcp_internal@@YAHH_NQEAU__acrt_ptd@@QEAPEAU__crt_multibyte_data@@@Z 000000014001ae18     libucrt:mbctype.obj
 0002:00009e30       $unwind$?setSBUpLow@@YAXPEAU__crt_multibyte_data@@@Z 000000014001ae30     libucrt:mbctype.obj
 0002:00009e4c       $unwind$??$?RV<lambda_efdfa57d1f175319df784efa44bb7b81>@@AEAV<lambda_5f0a4c1567f8adc6734073e5d1e1b35c>@@V<lambda_2e8a7d3640ea6ccb4c2413664c2db6fd>@@@?$__crt_seh_guarded_call@X@@QEAAX$$QEAV<lambda_efdfa57d1f175319df784efa44bb7b81>@@AEAV<lambda_5f0a4c1567f8adc6734073e5d1e1b35c>@@$$QEAV<lambda_2e8a7d3640ea6ccb4c2413664c2db6fd>@@@Z 000000014001ae4c     libucrt:mbctype.obj
 0002:00009e70       $unwind$_free_base         000000014001ae70     libucrt:free_base.obj
 0002:00009e78       $unwind$_invalid_parameter_noinfo 000000014001ae78     libucrt:invalid_parameter.obj
 0002:00009e80       $unwind$__acrt_call_reportfault 000000014001ae80     libucrt:invalid_parameter.obj
 0002:00009ea0       $unwind$_invalid_parameter_internal 000000014001aea0     libucrt:invalid_parameter.obj
 0002:00009ea0       $unwind$??$common_lseek_nolock@_J@@YA_JH_JHAEAV__crt_cached_ptd_host@@@Z 000000014001aea0     libucrt:lseek.obj
 0002:00009eb4       $unwind$?get_raw_ptd_noexit@__crt_cached_ptd_host@@QEAAPEAU__acrt_ptd@@XZ 000000014001aeb4     libucrt:invalid_parameter.obj
 0002:00009ec4       $unwind$_invalid_parameter 000000014001aec4     libucrt:invalid_parameter.obj
 0002:00009ed0       $unwind$raise              000000014001aed0     libucrt:signal.obj
 0002:00009f10       $unwind$??$?RV<lambda_450d765d439847d4c735a33c368b5fc0>@@AEAV<lambda_44731a7d0e6d81c3e6aa82d741081786>@@V<lambda_601a2a7da3b7a96e9554ac7215c4b07c>@@@?$__crt_seh_guarded_call@P6AXH@Z@@QEAAP6AXH@Z$$QEAV<lambda_450d765d439847d4c735a33c368b5fc0>@@AEAV<lambda_44731a7d0e6d81c3e6aa82d741081786>@@$$QEAV<lambda_601a2a7da3b7a96e9554ac7215c4b07c>@@@Z 000000014001af10     libucrt:signal.obj
 0002:00009f34       $unwind$_fflush_nolock     000000014001af34     libucrt:fflush.obj
 0002:00009f34       $unwind$fclose             000000014001af34     libucrt:fclose.obj
 0002:00009f44       $unwind$?common_flush_all@@YAH_N@Z 000000014001af44     libucrt:fflush.obj
 0002:00009f4c       $unwind$??$?RV<lambda_842d9ff0dc9ef11c61343bbaebe7f885>@@AEAV<lambda_c5860995281e5c4ce005b3de8f5874ee>@@V<lambda_d90129c13df834fdcbf8d2b88dafcf2d>@@@?$__crt_seh_guarded_call@X@@QEAAX$$QEAV<lambda_842d9ff0dc9ef11c61343bbaebe7f885>@@AEAV<lambda_c5860995281e5c4ce005b3de8f5874ee>@@$$QEAV<lambda_d90129c13df834fdcbf8d2b88dafcf2d>@@@Z 000000014001af4c     libucrt:fflush.obj
 0002:00009f70       $unwind$??$?RV<lambda_886d6c58226a84441f68b9f2b8217b83>@@AEAV<lambda_ab61a845afdef5b7c387490eaf3616ee>@@V<lambda_f7f22ab5edc0698d5f6905b0d3f44752>@@@?$__crt_seh_guarded_call@X@@QEAAX$$QEAV<lambda_886d6c58226a84441f68b9f2b8217b83>@@AEAV<lambda_ab61a845afdef5b7c387490eaf3616ee>@@$$QEAV<lambda_f7f22ab5edc0698d5f6905b0d3f44752>@@@Z 000000014001af70     libucrt:fflush.obj
 0002:00009f98       $unwind$__acrt_errno_from_os_error 000000014001af98     libucrt:errno.obj
 0002:00009fa8       $unwind$_calloc_base       000000014001afa8     libucrt:calloc_base.obj
 0002:00009fb0       $unwind$_fcloseall         000000014001afb0     libucrt:closeall.obj
 0002:00009fd8       $xdatasym                  000000014001afd8     libcmt:dispatchcfg.obj
 0002:00009fd8       $unwind$_malloc_base       000000014001afd8     libucrt:malloc_base.obj
 0002:00009fe0       $unwind$?__mbrtoc32_utf8@__crt_mbstring@@YA_KPEA_UPEBD_KPEAU_Mbstatet@@AEAV__crt_cached_ptd_host@@@Z 000000014001afe0     libucrt:mbrtoc32.obj
 0002:00009ffc       $unwind$?__mbsrtowcs_utf8@__crt_mbstring@@YA_KPEA_WPEAPEBD_KPEAU_Mbstatet@@AEAV__crt_cached_ptd_host@@@Z 000000014001affc     libucrt:mbrtowc.obj
 0002:0000a018       $unwind$__acrt_locale_free_monetary 000000014001b018     libucrt:initmon.obj
 0002:0000a020       $unwind$__acrt_locale_free_time 000000014001b020     libucrt:inittime.obj
 0002:0000a030       $unwind$__acrt_GetStringTypeA 000000014001b030     libucrt:getstringtypea.obj
 0002:0000a058       $unwind$__acrt_update_thread_locale_data 000000014001b058     libucrt:locale_refcounting.obj
 0002:0000a080       $xdatasym                  000000014001b080     libvcruntime:memcmp.obj
 0002:0000a080       $unwind$??$common_expand_argv_wildcards@D@@YAHQEAPEADQEAPEAPEAD@Z 000000014001b080     libucrt:argv_wildcards.obj
 0002:0000a098       $unwind$??$__acrt_convert_wcs_mbs_cp@_WDV<lambda_d8593a27d1aa8c02be35c86a17d324c4>@@U__crt_win32_buffer_internal_dynamic_resizing@@@@YAHQEB_WAEAV?$__crt_win32_buffer@DU__crt_win32_buffer_internal_dynamic_resizing@@@@AEBV<lambda_d8593a27d1aa8c02be35c86a17d324c4>@@I@Z 000000014001b098     libucrt:argv_wildcards.obj
 0002:0000a098       $unwind$__dcrt_get_narrow_environment_from_os 000000014001b098     libucrt:get_environment_from_os.obj
 0002:0000a0b0       $unwind$??$copy_and_add_argument_to_buffer@D@@YAHQEBD0_KAEAV?$argument_list@D@?A0x5f5c8891@@@Z 000000014001b0b0     libucrt:argv_wildcards.obj
 0002:0000a0cc       $unwind$??$expand_argument_wildcards@D@@YAHQEAD0AEAV?$argument_list@D@?A0x5f5c8891@@@Z 000000014001b0cc     libucrt:argv_wildcards.obj
 0002:0000a0ec       $unwind$__acrt_GetModuleFileNameA 000000014001b0ec     libucrt:getmodulefilenamea.obj
 0002:0000a108       $unwind$??$__acrt_convert_wcs_mbs_cp@_WDV<lambda_f788ae46380686e8b737efdd8c720d07>@@U__crt_win32_buffer_no_resizing@@@@YAHQEB_WAEAV?$__crt_win32_buffer@DU__crt_win32_buffer_no_resizing@@@@AEBV<lambda_f788ae46380686e8b737efdd8c720d07>@@I@Z 000000014001b108     libucrt:getmodulefilenamea.obj
 0002:0000a108       $unwind$__dcrt_write_console 000000014001b108     libucrt:initcon.obj
 0002:0000a11c       $unwind$?x_ismbbtype_l@@YAHPEAU__crt_locale_pointers@@IHH@Z 000000014001b11c     libucrt:ismbbyte.obj
 0002:0000a11c       $unwind$_strnicmp_l        000000014001b11c     libucrt:strnicmp.obj
 0002:0000a12c       $unwind$_recalloc_base     000000014001b12c     libucrt:recalloc.obj
 0002:0000a140       $unwind$__acrt_WideCharToMultiByte 000000014001b140     libucrt:widechartomultibyte.obj
 0002:0000a14c       $unwind$??$common_set_variable_in_environment_nolock@D@@YAHQEADH@Z 000000014001b14c     libucrt:setenv.obj
 0002:0000a164       $unwind$??$copy_environment@D@@YAPEAPEADQEAPEAD@Z 000000014001b164     libucrt:setenv.obj
 0002:0000a178       $unwind$_free_osfhnd       000000014001b178     libucrt:osfinfo.obj
 0002:0000a18c       $unwind$__acrt_lowio_destroy_handle_array 000000014001b18c     libucrt:osfinfo.obj
 0002:0000a19c       $unwind$__acrt_lowio_ensure_fh_exists 000000014001b19c     libucrt:osfinfo.obj
 0002:0000a1c8       $unwind$_realloc_base      000000014001b1c8     libucrt:realloc_base.obj
 0002:0000a1d4       $unwind$__acrt_LCMapStringA 000000014001b1d4     libucrt:lcmapstringa.obj
 0002:0000a1e4       $unwind$?__acrt_LCMapStringA_stat@@YAHPEAU__crt_locale_pointers@@PEB_WKPEBDHPEADHHH@Z 000000014001b1e4     libucrt:lcmapstringa.obj
 0002:0000a20c       $unwind$_commit            000000014001b20c     libucrt:commit.obj
 0002:0000a214       $unwind$??$?RV<lambda_a37b2b86f63e897a80ea819b0eb08c01>@@AEAV<lambda_38ce7e780aa69e748d6df282ebc68efe>@@V<lambda_99fb1378e971ab6e7edea83e3a7a83a2>@@@?$__crt_seh_guarded_call@H@@QEAAH$$QEAV<lambda_a37b2b86f63e897a80ea819b0eb08c01>@@AEAV<lambda_38ce7e780aa69e748d6df282ebc68efe>@@$$QEAV<lambda_99fb1378e971ab6e7edea83e3a7a83a2>@@@Z 000000014001b214     libucrt:commit.obj
 0002:0000a238       $unwind$_write_nolock      000000014001b238     libucrt:write.obj
 0002:0000a250       $unwind$_write_internal    000000014001b250     libucrt:write.obj
 0002:0000a27c       $unwind$_write_internal$fin$0 000000014001b27c     libucrt:write.obj
 0002:0000a27c       $unwind$?fin$0@?0??_fclose_internal@@YAHQEAU_iobuf@@AEAV__crt_cached_ptd_host@@@Z@4HA 000000014001b27c     libucrt:fclose.obj
 0002:0000a284       $unwind$?write_double_translated_ansi_nolock@@YA?AUwrite_result@?A0x17268360@@HQEBDIAEAV__crt_cached_ptd_host@@@Z 000000014001b284     libucrt:write.obj
 0002:0000a2b0       $ip2state$?write_double_translated_ansi_nolock@@YA?AUwrite_result@?A0x17268360@@HQEBDIAEAV__crt_cached_ptd_host@@@Z 000000014001b2b0     libucrt:write.obj
 0002:0000a2b8       $unwind$?write_text_ansi_nolock@@YA?AUwrite_result@?A0x17268360@@HQEBDI@Z 000000014001b2b8     libucrt:write.obj
 0002:0000a2b8       $unwind$?write_text_utf16le_nolock@@YA?AUwrite_result@?A0x17268360@@HQEBDI@Z 000000014001b2b8     libucrt:write.obj
 0002:0000a2d8       $unwind$?write_text_utf8_nolock@@YA?AUwrite_result@?A0x17268360@@HQEBDI@Z 000000014001b2d8     libucrt:write.obj
 0002:0000a2fc       $unwind$?_fclose_nolock_internal@@YAHQEAU_iobuf@@AEAV__crt_cached_ptd_host@@@Z 000000014001b2fc     libucrt:fclose.obj
 0002:0000a30c       $unwind$?_fclose_internal@@YAHQEAU_iobuf@@AEAV__crt_cached_ptd_host@@@Z 000000014001b30c     libucrt:fclose.obj
 0002:0000a330       $xdatasym                  000000014001b330     libcmt:chkstk.obj
 0002:0000a338       $unwind$qsort              000000014001b338     libucrt:qsort.obj
 0002:0000a350       $chain$3$qsort             000000014001b350     libucrt:qsort.obj
 0002:0000a370       $chain$4$qsort             000000014001b370     libucrt:qsort.obj
 0002:0000a380       $unwind$strpbrk            000000014001b380     libucrt:strpbrk.obj
 0002:0000a390       $unwind$fallbackMethod     000000014001b390     libucrt:strpbrk.obj
 0002:0000a3a0       $unwind$_mbsdec_l          000000014001b3a0     libucrt:mbsdec.obj
 0002:0000a3ac       $unwind$_msize_base        000000014001b3ac     libucrt:msize.obj
 0002:0000a3b4       $unwind$_strnicoll         000000014001b3b4     libucrt:strnicol.obj
 0002:0000a3c8       $chain$0$_strnicoll        000000014001b3c8     libucrt:strnicol.obj
 0002:0000a3dc       $chain$1$_strnicoll        000000014001b3dc     libucrt:strnicol.obj
 0002:0000a3ec       $unwind$__acrt_SetEnvironmentVariableA 000000014001b3ec     libucrt:setenvironmentvariablea.obj
 0002:0000a408       $unwind$_putwch_nolock     000000014001b408     libucrt:putwch.obj
 0002:0000a410       $unwind$_close_internal    000000014001b410     libucrt:close.obj
 0002:0000a418       $unwind$??$?RV<lambda_ad8af0d99a0adf03d037d7dffe354bb5>@@AEAV<lambda_c9ba49e555ba839a7b07aa3fbecb7617>@@V<lambda_2f1ebd5d68526518146ae959c9e734c8>@@@?$__crt_seh_guarded_call@H@@QEAAH$$QEAV<lambda_ad8af0d99a0adf03d037d7dffe354bb5>@@AEAV<lambda_c9ba49e555ba839a7b07aa3fbecb7617>@@$$QEAV<lambda_2f1ebd5d68526518146ae959c9e734c8>@@@Z 000000014001b418     libucrt:close.obj
 0002:0000a440       $xdatasym                  000000014001b440     libucrt:log10.obj
 0002:0000a440       $unwind$__acrt_CompareStringA 000000014001b440     libucrt:comparestringa.obj
 0002:0000a450       $unwind$?InternalCompareStringA@@YAHPEAU__crt_locale_pointers@@PEB_WKPEBDH2HH@Z 000000014001b450     libucrt:comparestringa.obj
 0002:0000a474       $unwind$__acrt_initialize_fma3 000000014001b474     libucrt:fma3_available.obj
 0003:00000000       ?stats_mutex@@3Vmutex@std@@A 000000014001c000     aurora_runtime:memory.obj
 0003:00000050       ?gc_auto_threshold@@3U?$atomic@_K@std@@A 000000014001c050     aurora_runtime:memory.obj
 0003:000000f0       ?__vcrt_flsindex@@3KA      000000014001c0f0     libvcruntime:per_thread_data.obj
 0003:00000220       ?__acrt_flsindex@@3KA      000000014001c220     libucrt:per_thread_data.obj
 0003:00000460       _mbctypes                  000000014001c460     libucrt:mbctype.obj
 0003:00000570       _mbcasemaps                000000014001c570     libucrt:mbctype.obj
 0003:00000670       ?__rgctypeflag@@3PADA      000000014001c670     libucrt:mbctype.obj
 0003:00000680       ?__rgcode_page_info@@3PAUcode_page_info@@A 000000014001c680     libucrt:mbctype.obj
 0003:000008dc       ?errno_no_memory@@3HA      000000014001c8dc     libucrt:errno.obj
 0003:000008e0       ?doserrno_no_memory@@3KA   000000014001c8e0     libucrt:errno.obj
 0003:00000aa0       ?__dcrt_lowio_console_output_handle@@3PEAXEA 000000014001caa0     libucrt:initcon.obj
 0003:00000b20       ?memory_stats@@3UAuroraMemoryStats@@A 000000014001cb20     aurora_runtime:memory.obj
 0003:00000b60       ?diagnostics_enabled@@3U?$atomic@_N@std@@A 000000014001cb60     aurora_runtime:memory.obj
 0003:00000b68       ?stats_lock@@3U_RTL_SRWLOCK@@A 000000014001cb68     aurora_runtime:memory.obj
 0003:00000b70       ?gc_objects@@3PEAV?$vector@UGCRecord@@V?$allocator@UGCRecord@@@std@@@std@@EA 000000014001cb70     aurora_runtime:memory.obj
 0003:00000b78       ?gc_live_objects@@3U?$atomic@_K@std@@A 000000014001cb78     aurora_runtime:memory.obj
 0003:00000b80       ?gc_collected@@3U?$atomic@_K@std@@A 000000014001cb80     aurora_runtime:memory.obj
 0003:00000b88       ?gc_alloc_since_last@@3U?$atomic@_K@std@@A 000000014001cb88     aurora_runtime:memory.obj
 0003:00000b90       ?gc_lock@@3U_RTL_SRWLOCK@@A 000000014001cb90     aurora_runtime:memory.obj
 0003:00000b98       ?aurora_ex_top@@3HA        000000014001cb98     aurora_runtime:memory.obj
 0003:00000ba0       ?aurora_ex_stack@@3PAUAuroraExFrame@@A 000000014001cba0     aurora_runtime:memory.obj
 0003:000093a0       arena_gc_lock              00000001400253a0     aurora_runtime:memory.obj
 0003:000093a8       arena_gc_roots             00000001400253a8     aurora_runtime:memory.obj
 0003:000093c0       GS_ExceptionRecord         00000001400253c0     libcmt:gs_report.obj
 0003:00009460       GS_ContextRecord           0000000140025460     libcmt:gs_report.obj
 0003:00009940       ?__vcrt_startup_thread_ptd@@3U__vcrt_ptd@@A 0000000140025940     libvcruntime:per_thread_data.obj
 0003:000099c0       ?module_handles@@3PAPEAUHINSTANCE__@@A 00000001400259c0     libvcruntime:winapi_downlevel.obj
 0003:000099d8       ?function_pointers@@3PAPEAXA 00000001400259d8     libvcruntime:winapi_downlevel.obj
 0003:00009a08       __vcrt_lock_table          0000000140025a08     libvcruntime:locks.obj
 0003:00009a30       __vcrt_locks_initialized   0000000140025a30     libvcruntime:locks.obj
 0003:00009a50       ?is_initialized_as_dll@@3_NA 0000000140025a50     libcmt:utility.obj
 0003:00009a51       ?module_local_atexit_table_initialized@@3_NA 0000000140025a51     libcmt:utility.obj
 0003:00009a58       ?module_local_atexit_table@@3U_onexit_table_t@@A 0000000140025a58     libcmt:utility.obj
 0003:00009a70       ?module_local_at_quick_exit_table@@3U_onexit_table_t@@A 0000000140025a70     libcmt:utility.obj
 0003:00009b10       ?user_matherr@@3V?$dual_state_global@P6AHPEAU_exception@@@Z@__crt_state_management@@A 0000000140025b10     libucrt:matherr.obj
 0003:00009b18       ?thread_local_exit_callback_func@@3P6AXPEAXK0@ZEA 0000000140025b18     libucrt:exit.obj
 0003:00009b20       ?c_termination_complete@@3JA 0000000140025b20     libucrt:exit.obj
 0003:00009b24       ?c_exit_complete@?1???R<lambda_6e4b09c48022b2350581041d5f6b0c4c>@@QEBA@XZ@4_NA 0000000140025b24     libucrt:exit.obj
 0003:00009b28       ?__acrt_new_handler@@3V?$dual_state_global@P6AH_K@Z@__crt_state_management@@A 0000000140025b28     libucrt:new_handler.obj
 0003:00009b40       ?program_name@?1???$common_configure_argv@D@@YAHW4_crt_argv_mode@@@Z@4PADA 0000000140025b40     libucrt:argv_parsing.obj
 0003:00009c98       ?__acrt_app_type@@3W4_crt_app_type@@A 0000000140025c98     libucrt:report_runtime_error.obj
 0003:00009c9c       ?__acrt_global_new_mode@@3V?$dual_state_global@J@__crt_state_management@@A 0000000140025c9c     libucrt:new_mode.obj
 0003:00009ca0       ?module_handles@@3PAPEAUHINSTANCE__@@A 0000000140025ca0     libucrt:winapi_thunks.obj
 0003:00009d60       ?__acrt_lock_table@@3PAU_RTL_CRITICAL_SECTION@@A 0000000140025d60     libucrt:locks.obj
 0003:00009fb8       ?__acrt_locks_initialized@@3IA 0000000140025fb8     libucrt:locks.obj
 0003:0000a3f0       ?fSystemSet@@3HA           00000001400263f0     libucrt:mbctype.obj
 0003:0000a3f4       ?initialized@?1??__acrt_initialize_multibyte@@9@4_NA 00000001400263f4     libucrt:mbctype.obj
 0003:0000a3f8       ?__acrt_invalid_parameter_handler@@3V?$dual_state_global@P6AXPEB_W00I_K@Z@__crt_state_management@@A 00000001400263f8     libucrt:invalid_parameter.obj
 0003:0000a400       ?ctrlc_action@@3V?$dual_state_global@P6AXH@Z@__crt_state_management@@A 0000000140026400     libucrt:signal.obj
 0003:0000a408       ?ctrlbreak_action@@3V?$dual_state_global@P6AXH@Z@__crt_state_management@@A 0000000140026408     libucrt:signal.obj
 0003:0000a410       ?abort_action@@3V?$dual_state_global@P6AXH@Z@__crt_state_management@@A 0000000140026410     libucrt:signal.obj
 0003:0000a418       ?term_action@@3V?$dual_state_global@P6AXH@Z@__crt_state_management@@A 0000000140026418     libucrt:signal.obj
 0003:0000a438       ?internal_state@?1??_mbtowc_internal@@9@4U_Mbstatet@@A 0000000140026438     libucrt:mbtowc.obj
 0003:0000a440       ?internal_pst@?1??__mbrtoc32_utf8@__crt_mbstring@@YA_KPEA_UPEBD_KPEAU_Mbstatet@@AEAV__crt_cached_ptd_host@@@Z@4U3@A 0000000140026440     libucrt:mbrtoc32.obj
 0004:00000018       $pdata$aurora_print_str    0000000140027018     aurora_runtime:io.obj
 0004:00000024       $pdata$aurora_panic        0000000140027024     aurora_runtime:io.obj
 0004:00000030       $pdata$aurora_str_from_cstr 0000000140027030     aurora_runtime:aurora_str.obj
 0004:0000003c       $pdata$??0exception@std@@QEAA@AEBV01@@Z 000000014002703c     aurora_runtime:memory.obj
 0004:00000048       $pdata$??_Gexception@std@@UEAAPEAXI@Z 0000000140027048     aurora_runtime:memory.obj
 0004:00000048       $pdata$??_Gbad_exception@std@@UEAAPEAXI@Z 0000000140027048     libvcruntime:frame.obj
 0004:00000054       $pdata$__GSHandlerCheckCommon 0000000140027054     libcmt:gshandler.obj
 0004:00000060       $pdata$__GSHandlerCheck    0000000140027060     libcmt:gshandler.obj
 0004:00000090       $pdata$__std_exception_copy 0000000140027090     libvcruntime:std_exception.obj
 0004:0000009c       $pdata$__std_exception_destroy 000000014002709c     libvcruntime:std_exception.obj
 0004:000000a8       $pdata$_CxxThrowException  00000001400270a8     libvcruntime:throw.obj
 0004:000000b4       $pdata$??_Gtype_info@@UEAAPEAXI@Z 00000001400270b4     libcmt:std_type_info_static.obj
 0004:000000c0       $pdata$__report_gsfailure  00000001400270c0     libcmt:gs_report.obj
 0004:000000cc       $pdata$capture_previous_context 00000001400270cc     libcmt:gs_report.obj
 0004:000000d8       $pdata$__raise_securityfailure 00000001400270d8     libcmt:gs_report.obj
 0004:000000e4       $pdata$__isa_available_init 00000001400270e4     libcmt:cpu_disp.obj
 0004:00000168       $pdata$?CatchTryBlock@__FrameHandler3@@SAPEBU_s_TryBlockMapEntry@@PEBU_s_FuncInfo@@H@Z 0000000140027168     libvcruntime:risctrnsctrl.obj
 0004:00000174       $pdata$?ExecutionInCatch@__FrameHandler3@@SA_NPEAU_xDISPATCHER_CONTEXT@@PEBU_s_FuncInfo@@@Z 0000000140027174     libvcruntime:risctrnsctrl.obj
 0004:00000180       $pdata$?FrameUnwindToEmptyState@__FrameHandler3@@SAXPEA_KPEAU_xDISPATCHER_CONTEXT@@PEBU_s_FuncInfo@@@Z 0000000140027180     libvcruntime:risctrnsctrl.obj
 0004:0000018c       $pdata$?GetEstablisherFrame@__FrameHandler3@@SAPEA_KPEA_KPEAU_xDISPATCHER_CONTEXT@@PEBU_s_FuncInfo@@0@Z 000000014002718c     libvcruntime:risctrnsctrl.obj
 0004:00000198       $pdata$?UnwindNestedFrames@__FrameHandler3@@SAXPEA_KPEAUEHExceptionRecord@@PEAU_CONTEXT@@0PEAXPEBU_s_FuncInfo@@HHPEBU_s_HandlerType@@PEAU_xDISPATCHER_CONTEXT@@E@Z 0000000140027198     libvcruntime:risctrnsctrl.obj
 0004:000001a4       $pdata$?GetRangeOfTrysToCheck@__FrameHandler3@@SA?AU?$pair@Viterator@TryBlockMap@__FrameHandler3@@V123@@std@@AEAVTryBlockMap@1@HPEAU_xDISPATCHER_CONTEXT@@PEBU_s_FuncInfo@@H@Z 00000001400271a4     libvcruntime:risctrnsctrl.obj
 0004:000001b0       $pdata$_GetImageBase       00000001400271b0     libvcruntime:risctrnsctrl.obj
 0004:000001bc       $pdata$_SetImageBase       00000001400271bc     libvcruntime:risctrnsctrl.obj
 0004:000001c8       $pdata$_GetThrowImageBase  00000001400271c8     libvcruntime:risctrnsctrl.obj
 0004:000001d4       $pdata$_SetThrowImageBase  00000001400271d4     libvcruntime:risctrnsctrl.obj
 0004:000001e0       $pdata$_CreateFrameInfo    00000001400271e0     libvcruntime:risctrnsctrl.obj
 0004:000001ec       $pdata$_FindAndUnlinkFrame 00000001400271ec     libvcruntime:risctrnsctrl.obj
 0004:000001f8       $pdata$__CxxFrameHandler3  00000001400271f8     libvcruntime:risctrnsctrl.obj
 0004:00000204       $pdata$??$_CallSETranslator@V__FrameHandler3@@@@YAHPEAUEHExceptionRecord@@PEA_KPEAU_CONTEXT@@PEAU_xDISPATCHER_CONTEXT@@PEBU_s_FuncInfo@@K1H@Z 0000000140027204     libvcruntime:risctrnsctrl.obj
 0004:00000210       $pdata$?filt$0@?0???$_CallSETranslator@V__FrameHandler3@@@@YAHPEAUEHExceptionRecord@@PEA_KPEAU_CONTEXT@@PEAU_xDISPATCHER_CONTEXT@@PEBU_s_FuncInfo@@K1H@Z@4HA 0000000140027210     libvcruntime:risctrnsctrl.obj
 0004:0000021c       $pdata$__vcrt_initialize_ptd 000000014002721c     libvcruntime:per_thread_data.obj
 0004:00000228       $pdata$__vcrt_uninitialize_ptd 0000000140027228     libvcruntime:per_thread_data.obj
 0004:00000234       $pdata$__vcrt_getptd       0000000140027234     libvcruntime:per_thread_data.obj
 0004:00000240       $pdata$__vcrt_getptd_noexit 0000000140027240     libvcruntime:per_thread_data.obj
 0004:0000024c       $pdata$__vcrt_freefls      000000014002724c     libvcruntime:per_thread_data.obj
 0004:00000258       $pdata$?StateFromIp@__FrameHandler3@@SAHPEBU_s_FuncInfo@@PEAU_xDISPATCHER_CONTEXT@@_K@Z 0000000140027258     libvcruntime:ehstate.obj
 0004:00000264       $pdata$?GetCurrentState@__FrameHandler3@@SAHPEA_KPEAU_xDISPATCHER_CONTEXT@@PEBU_s_FuncInfo@@@Z 0000000140027264     libvcruntime:ehstate.obj
 0004:00000270       $pdata$?SetUnwindTryBlock@__FrameHandler3@@SAXPEA_KPEAU_xDISPATCHER_CONTEXT@@PEBU_s_FuncInfo@@H@Z 0000000140027270     libvcruntime:ehstate.obj
 0004:0000027c       $pdata$?GetUnwindTryBlock@__FrameHandler3@@SAHPEA_KPEAU_xDISPATCHER_CONTEXT@@PEBU_s_FuncInfo@@@Z 000000014002727c     libvcruntime:ehstate.obj
 0004:00000288       $pdata$?FrameUnwindToState@__FrameHandler3@@SAXPEA_KPEAU_xDISPATCHER_CONTEXT@@PEBU_s_FuncInfo@@H@Z 0000000140027288     libvcruntime:frame.obj
 0004:00000294       $pdata$?filt$0@?0??FrameUnwindToState@__FrameHandler3@@SAXPEA_KPEAU_xDISPATCHER_CONTEXT@@PEBU_s_FuncInfo@@H@Z@4HA 0000000140027294     libvcruntime:frame.obj
 0004:000002a0       $pdata$?fin$1@?0??FrameUnwindToState@__FrameHandler3@@SAXPEA_KPEAU_xDISPATCHER_CONTEXT@@PEBU_s_FuncInfo@@H@Z@4HA 00000001400272a0     libvcruntime:frame.obj
 0004:000002ac       $pdata$?GetHandlerSearchState@__FrameHandler3@@SAHPEA_KPEAU_xDISPATCHER_CONTEXT@@PEBU_s_FuncInfo@@@Z 00000001400272ac     libvcruntime:frame.obj
 0004:000002b8       $pdata$?CxxCallCatchBlock@__FrameHandler3@@SAPEAXPEAU_EXCEPTION_RECORD@@@Z 00000001400272b8     libvcruntime:frame.obj
 0004:000002c4       $pdata$?filt$0@?0??CxxCallCatchBlock@__FrameHandler3@@SAPEAXPEAU_EXCEPTION_RECORD@@@Z@4HA 00000001400272c4     libvcruntime:frame.obj
 0004:000002d0       $pdata$?fin$1@?0??CxxCallCatchBlock@__FrameHandler3@@SAPEAXPEAU_EXCEPTION_RECORD@@@Z@4HA 00000001400272d0     libvcruntime:frame.obj
 0004:000002dc       $pdata$??0bad_exception@std@@QEAA@AEBV01@@Z 00000001400272dc     libvcruntime:frame.obj
 0004:000002e8       $pdata$?ExFilterRethrow@@YAHPEAU_EXCEPTION_POINTERS@@PEAUEHExceptionRecord@@PEAH@Z 00000001400272e8     libvcruntime:frame.obj
 0004:000002f4       $pdata$?IsInExceptionSpec@@YAEPEAUEHExceptionRecord@@PEBU_s_ESTypeList@@@Z 00000001400272f4     libvcruntime:frame.obj
 0004:00000300       $pdata$?Is_bad_exception_allowed@@YAEPEBU_s_ESTypeList@@@Z 0000000140027300     libvcruntime:frame.obj
 0004:0000030c       $pdata$??$TypeMatchHelper@V__FrameHandler3@@@@YAHPEBU_s_HandlerType@@PEBU_s_CatchableType@@PEBU_s_ThrowInfo@@@Z 000000014002730c     libvcruntime:frame.obj
 0004:00000318       $pdata$??$BuildCatchObjectHelperInternal@V__FrameHandler3@@@@YAHPEAUEHExceptionRecord@@PEAXPEBU_s_HandlerType@@PEBU_s_CatchableType@@@Z 0000000140027318     libvcruntime:frame.obj
 0004:00000324       $pdata$??$BuildCatchObjectInternal@V__FrameHandler3@@@@YAXPEAUEHExceptionRecord@@PEAXPEBU_s_HandlerType@@PEBU_s_CatchableType@@@Z 0000000140027324     libvcruntime:frame.obj
 0004:00000330       $pdata$??$__InternalCxxFrameHandler@V__FrameHandler3@@@@YA?AW4_EXCEPTION_DISPOSITION@@PEAUEHExceptionRecord@@PEA_KPEAU_CONTEXT@@PEAU_xDISPATCHER_CONTEXT@@PEBU_s_FuncInfo@@H1E@Z 0000000140027330     libvcruntime:frame.obj
 0004:0000033c       $pdata$??$FindHandler@V__FrameHandler3@@@@YAXPEAUEHExceptionRecord@@PEA_KPEAU_CONTEXT@@PEAU_xDISPATCHER_CONTEXT@@PEBU_s_FuncInfo@@EH1@Z 000000014002733c     libvcruntime:frame.obj
 0004:00000348       $pdata$??$CatchIt@V__FrameHandler3@@@@YAXPEAUEHExceptionRecord@@PEA_KPEAU_CONTEXT@@PEAU_xDISPATCHER_CONTEXT@@PEBU_s_FuncInfo@@PEBU_s_HandlerType@@PEBU_s_CatchableType@@PEBU_s_TryBlockMapEntry@@H1EE@Z 0000000140027348     libvcruntime:frame.obj
 0004:00000354       $pdata$??$FindHandlerForForeignException@V__FrameHandler3@@@@YAXPEAUEHExceptionRecord@@PEA_KPEAU_CONTEXT@@PEAU_xDISPATCHER_CONTEXT@@PEBU_s_FuncInfo@@HH1@Z 0000000140027354     libvcruntime:frame.obj
 0004:00000360       $pdata$__C_specific_handler 0000000140027360     libvcruntime:riscchandler.obj
 0004:0000036c       $pdata$__vcrt_FlsAlloc     000000014002736c     libvcruntime:winapi_downlevel.obj
 0004:00000378       $pdata$__vcrt_FlsFree      0000000140027378     libvcruntime:winapi_downlevel.obj
 0004:00000384       $pdata$__vcrt_FlsGetValue  0000000140027384     libvcruntime:winapi_downlevel.obj
 0004:00000390       $pdata$__vcrt_FlsSetValue  0000000140027390     libvcruntime:winapi_downlevel.obj
 0004:0000039c       $pdata$__vcrt_InitializeCriticalSectionEx 000000014002739c     libvcruntime:winapi_downlevel.obj
 0004:000003a8       $pdata$?try_get_function@@YAPEAXW4function_id@?A0x14174aea@@QEBDQEBW4module_id@2@2@Z 00000001400273a8     libvcruntime:winapi_downlevel.obj
 0004:000003c0       $pdata$__std_terminate     00000001400273c0     libvcruntime:ehhelpers.obj
 0004:000003cc       $pdata$_IsExceptionObjectToBeDestroyed 00000001400273cc     libvcruntime:ehhelpers.obj
 0004:000003d8       $pdata$__current_exception 00000001400273d8     libvcruntime:ehhelpers.obj
 0004:000003e4       $pdata$__current_exception_context 00000001400273e4     libvcruntime:ehhelpers.obj
 0004:000003f0       $pdata$__FrameUnwindFilter 00000001400273f0     libvcruntime:ehhelpers.obj
 0004:000003fc       $pdata$__DestructExceptionObject 00000001400273fc     libvcruntime:ehhelpers.obj
 0004:00000408       $pdata$__DestructExceptionObject$filt$0 0000000140027408     libvcruntime:ehhelpers.obj
 0004:00000414       $pdata$_IsNonwritableInCurrentImage 0000000140027414     libcmt:pesect.obj
 0004:00000420       $pdata$_IsNonwritableInCurrentImage$filt$0 0000000140027420     libcmt:pesect.obj
 0004:00000450       $pdata$__vcrt_initialize_locks 0000000140027450     libvcruntime:locks.obj
 0004:0000045c       $pdata$__vcrt_uninitialize_locks 000000014002745c     libvcruntime:locks.obj
 0004:00000480       $pdata$?pre_c_initialization@@YAHXZ 0000000140027480     libcmt:exe_main.obj
 0004:0000048c       $pdata$?post_pgo_initialization@@YAHXZ 000000014002748c     libcmt:exe_main.obj
 0004:00000498       $pdata$?pre_cpp_initialization@@YAXXZ 0000000140027498     libcmt:exe_main.obj
 0004:000004a4       $pdata$?__scrt_common_main_seh@@YAHXZ 00000001400274a4     libcmt:exe_main.obj
 0004:000004b0       $pdata$?filt$0@?0??__scrt_common_main_seh@@YAHXZ@4HA 00000001400274b0     libcmt:exe_main.obj
 0004:000004bc       $pdata$mainCRTStartup      00000001400274bc     libcmt:exe_main.obj
 0004:000004c8       $pdata$atexit              00000001400274c8     libcmt:utility.obj
 0004:000004d4       $pdata$_onexit             00000001400274d4     libcmt:utility.obj
 0004:000004e0       $pdata$__scrt_is_nonwritable_in_current_image 00000001400274e0     libcmt:utility.obj
 0004:000004ec       $pdata$__scrt_is_nonwritable_in_current_image$filt$0 00000001400274ec     libcmt:utility.obj
 0004:000004f8       $pdata$__scrt_acquire_startup_lock 00000001400274f8     libcmt:utility.obj
 0004:00000504       $pdata$__scrt_release_startup_lock 0000000140027504     libcmt:utility.obj
 0004:00000510       $pdata$__scrt_initialize_crt 0000000140027510     libcmt:utility.obj
 0004:0000051c       $pdata$__scrt_uninitialize_crt 000000014002751c     libcmt:utility.obj
 0004:00000528       $pdata$__scrt_initialize_onexit_tables 0000000140027528     libcmt:utility.obj
 0004:00000534       $pdata$__security_init_cookie 0000000140027534     libcmt:gs_support.obj
 0004:00000540       $pdata$__scrt_initialize_default_local_stdio_options 0000000140027540     libcmt:default_local_stdio_options.obj
 0004:0000054c       $pdata$__scrt_is_managed_app 000000014002754c     libcmt:utility_desktop.obj
 0004:00000558       $pdata$__scrt_fastfail     0000000140027558     libcmt:utility_desktop.obj
 0004:00000564       $pdata$__scrt_unhandled_exception_filter 0000000140027564     libcmt:utility_desktop.obj
 0004:00000570       $pdata$_RTC_Initialize     0000000140027570     libcmt:initsect.obj
 0004:0000057c       $pdata$_RTC_Terminate      000000014002757c     libcmt:initsect.obj
 0004:00000588       $pdata$__vcrt_initialize   0000000140027588     libvcruntime:initialization.obj
 0004:00000594       $pdata$__vcrt_uninitialize 0000000140027594     libvcruntime:initialization.obj
 0004:000005a0       $pdata$__acrt_uninitialize 00000001400275a0     libucrt:initialization.obj
 0004:000005ac       $pdata$initialize_c        00000001400275ac     libucrt:initialization.obj
 0004:000005b8       $pdata$uninitialize_environment 00000001400275b8     libucrt:initialization.obj
 0004:000005c4       $pdata$initialize_pointers 00000001400275c4     libucrt:initialization.obj
 0004:000005d0       $pdata$uninitialize_allocated_memory 00000001400275d0     libucrt:initialization.obj
 0004:000005dc       $pdata$uninitialize_allocated_io_buffers 00000001400275dc     libucrt:initialization.obj
 0004:000005e8       $pdata$__acrt_initialize_stdio 00000001400275e8     libucrt:_file.obj
 0004:000005f4       $pdata$__acrt_uninitialize_stdio 00000001400275f4     libucrt:_file.obj
 0004:00000600       $pdata$__acrt_initialize_command_line 0000000140027600     libucrt:argv_data.obj
 0004:0000060c       $pdata$?get_raw_ptd@__crt_cached_ptd_host@@QEAAPEAU__acrt_ptd@@XZ 000000014002760c     libucrt:output.obj
 0004:00000618       $pdata$0$?get_raw_ptd@__crt_cached_ptd_host@@QEAAPEAU__acrt_ptd@@XZ 0000000140027618     libucrt:output.obj
 0004:00000624       $pdata$1$?get_raw_ptd@__crt_cached_ptd_host@@QEAAPEAU__acrt_ptd@@XZ 0000000140027624     libucrt:output.obj
 0004:00000630       $pdata$?update_locale_slow@__crt_cached_ptd_host@@AEAAXXZ 0000000140027630     libucrt:output.obj
 0004:0000063c       $pdata$_register_thread_local_exe_atexit_callback 000000014002763c     libucrt:exit.obj
 0004:00000648       $pdata$?try_cor_exit_process@@YAXI@Z 0000000140027648     libucrt:exit.obj
 0004:00000654       $pdata$?exit_or_terminate_process@@YAXI_N@Z 0000000140027654     libucrt:exit.obj
 0004:00000660       $pdata$?common_exit@@YAXHW4_crt_exit_cleanup_mode@@W4_crt_exit_return_mode@@@Z 0000000140027660     libucrt:exit.obj
 0004:0000066c       $pdata$??R<lambda_6e4b09c48022b2350581041d5f6b0c4c>@@QEBA@XZ 000000014002766c     libucrt:exit.obj
 0004:00000678       $pdata$?filt$0@?0???R<lambda_6e4b09c48022b2350581041d5f6b0c4c>@@QEBA@XZ@4HA 0000000140027678     libucrt:exit.obj
 0004:00000684       $pdata$??$?RV<lambda_d80eeec6fff315bfe5c115232f3240e3>@@AEAV<lambda_6e4b09c48022b2350581041d5f6b0c4c>@@V<lambda_2358e3775559c9db80273638284d5e45>@@@?$__crt_seh_guarded_call@X@@QEAAX$$QEAV<lambda_d80eeec6fff315bfe5c115232f3240e3>@@AEAV<lambda_6e4b09c48022b2350581041d5f6b0c4c>@@$$QEAV<lambda_2358e3775559c9db80273638284d5e45>@@@Z 0000000140027684     libucrt:exit.obj
 0004:00000690       $pdata$?fin$0@?0???$?RV<lambda_d80eeec6fff315bfe5c115232f3240e3>@@AEAV<lambda_6e4b09c48022b2350581041d5f6b0c4c>@@V<lambda_2358e3775559c9db80273638284d5e45>@@@?$__crt_seh_guarded_call@X@@QEAAX$$QEAV<lambda_d80eeec6fff315bfe5c115232f3240e3>@@AEAV<lambda_6e4b09c48022b2350581041d5f6b0c4c>@@$$QEAV<lambda_2358e3775559c9db80273638284d5e45>@@@Z@4HA 0000000140027690     libucrt:exit.obj
 0004:00000690       $pdata$?fin$0@?0???$?RV<lambda_638799b9deba96c50f710eeac98168cd>@@AEAV<lambda_22ebabd17bc4fa466a2aca6d8deb888d>@@V<lambda_a6f7d7db0129f75315ebf26d50c089f1>@@@?$__crt_seh_guarded_call@H@@QEAAH$$QEAV<lambda_638799b9deba96c50f710eeac98168cd>@@AEAV<lambda_22ebabd17bc4fa466a2aca6d8deb888d>@@$$QEAV<lambda_a6f7d7db0129f75315ebf26d50c089f1>@@@Z@4HA 0000000140027690     libucrt:onexit.obj
 0004:00000690       $pdata$?fin$0@?0???$?RV<lambda_7777bce6b2f8c936911f934f8298dc43>@@AEAV<lambda_f03950bc5685219e0bcd2087efbe011e>@@V<lambda_3883c3dff614d5e0c5f61bb1ac94921c>@@@?$__crt_seh_guarded_call@H@@QEAAH$$QEAV<lambda_7777bce6b2f8c936911f934f8298dc43>@@AEAV<lambda_f03950bc5685219e0bcd2087efbe011e>@@$$QEAV<lambda_3883c3dff614d5e0c5f61bb1ac94921c>@@@Z@4HA 0000000140027690     libucrt:onexit.obj
 0004:00000690       $pdata$?fin$0@?0???$?RV<lambda_0ae27a3a962d80f24befdcbee591983d>@@AEAV<lambda_8d0ee55de4b1038c4002e0adecdf1839>@@V<lambda_dc504788e8f1664fe9b84e20bfb512f2>@@@?$__crt_seh_guarded_call@X@@QEAAX$$QEAV<lambda_0ae27a3a962d80f24befdcbee591983d>@@AEAV<lambda_8d0ee55de4b1038c4002e0adecdf1839>@@$$QEAV<lambda_dc504788e8f1664fe9b84e20bfb512f2>@@@Z@4HA 0000000140027690     libucrt:per_thread_data.obj
 0004:00000690       $pdata$?fin$0@?0???$?RV<lambda_aa87e3671a710a21b5dc78c0bdf72e11>@@AEAV<lambda_92619d2358a28f41a33ba319515a20b9>@@V<lambda_6992ecaafeb10aed2b74cb1fae11a551>@@@?$__crt_seh_guarded_call@X@@QEAAX$$QEAV<lambda_aa87e3671a710a21b5dc78c0bdf72e11>@@AEAV<lambda_92619d2358a28f41a33ba319515a20b9>@@$$QEAV<lambda_6992ecaafeb10aed2b74cb1fae11a551>@@@Z@4HA 0000000140027690     libucrt:per_thread_data.obj
 0004:00000690       $pdata$?fin$0@?0???$?RV<lambda_f2e299630e499de9f9a165e60fcd3db5>@@AEAV<lambda_2ae9d31cdba2644fcbeaf08da7c24588>@@V<lambda_40d01ff24d0e7b3814fdbdcee8eab3c7>@@@?$__crt_seh_guarded_call@X@@QEAAX$$QEAV<lambda_f2e299630e499de9f9a165e60fcd3db5>@@AEAV<lambda_2ae9d31cdba2644fcbeaf08da7c24588>@@$$QEAV<lambda_40d01ff24d0e7b3814fdbdcee8eab3c7>@@@Z@4HA 0000000140027690     libucrt:per_thread_data.obj
 0004:00000690       $pdata$?fin$0@?0???$?RV<lambda_2d41944a1d46af3157314b8a01080d33>@@AEAV<lambda_8f455de75cd7d7f24b4096f044d8b9e6>@@V<lambda_aa500f224e6afead328df44964fe2772>@@@?$__crt_seh_guarded_call@X@@QEAAX$$QEAV<lambda_2d41944a1d46af3157314b8a01080d33>@@AEAV<lambda_8f455de75cd7d7f24b4096f044d8b9e6>@@$$QEAV<lambda_aa500f224e6afead328df44964fe2772>@@@Z@4HA 0000000140027690     libucrt:per_thread_data.obj
 0004:00000690       $pdata$?fin$0@?0???$?RV<lambda_450d765d439847d4c735a33c368b5fc0>@@AEAV<lambda_44731a7d0e6d81c3e6aa82d741081786>@@V<lambda_601a2a7da3b7a96e9554ac7215c4b07c>@@@?$__crt_seh_guarded_call@P6AXH@Z@@QEAAP6AXH@Z$$QEAV<lambda_450d765d439847d4c735a33c368b5fc0>@@AEAV<lambda_44731a7d0e6d81c3e6aa82d741081786>@@$$QEAV<lambda_601a2a7da3b7a96e9554ac7215c4b07c>@@@Z@4HA 0000000140027690     libucrt:signal.obj
 0004:0000069c       $pdata$_callnewh           000000014002769c     libucrt:new_handler.obj
 0004:000006a8       $pdata$_query_new_handler  00000001400276a8     libucrt:new_handler.obj
 0004:000006b4       $pdata$_set_new_handler    00000001400276b4     libucrt:new_handler.obj
 0004:000006c0       $pdata$_query_new_handler$fin$0 00000001400276c0     libucrt:new_handler.obj
 0004:000006cc       $pdata$_set_new_handler$fin$0 00000001400276cc     libucrt:new_handler.obj
 0004:000006d8       $pdata$_configthreadlocale 00000001400276d8     libucrt:wsetlocale.obj
 0004:000006e4       $pdata$__acrt_uninitialize_locale 00000001400276e4     libucrt:wsetlocale.obj
 0004:000006f0       $pdata$??$?RV<lambda_410d79af7f07d98d83a3f525b3859a53>@@AEAV<lambda_3e16ef9562a7dcce91392c22ab16ea36>@@V<lambda_38119f0e861e05405d8a144b9b982f0a>@@@?$__crt_seh_guarded_call@X@@QEAAX$$QEAV<lambda_410d79af7f07d98d83a3f525b3859a53>@@AEAV<lambda_3e16ef9562a7dcce91392c22ab16ea36>@@$$QEAV<lambda_38119f0e861e05405d8a144b9b982f0a>@@@Z 00000001400276f0     libucrt:wsetlocale.obj
 0004:000006fc       $pdata$?fin$0@?0???$?RV<lambda_410d79af7f07d98d83a3f525b3859a53>@@AEAV<lambda_3e16ef9562a7dcce91392c22ab16ea36>@@V<lambda_38119f0e861e05405d8a144b9b982f0a>@@@?$__crt_seh_guarded_call@X@@QEAAX$$QEAV<lambda_410d79af7f07d98d83a3f525b3859a53>@@AEAV<lambda_3e16ef9562a7dcce91392c22ab16ea36>@@$$QEAV<lambda_38119f0e861e05405d8a144b9b982f0a>@@@Z@4HA 00000001400276fc     libucrt:wsetlocale.obj
 0004:00000708       $pdata$_configure_narrow_argv 0000000140027708     libucrt:argv_parsing.obj
 0004:00000714       $pdata$__acrt_allocate_buffer_for_argv 0000000140027714     libucrt:argv_parsing.obj
 0004:00000720       $pdata$??$parse_command_line@D@@YAXPEADPEAPEAD0PEA_K2@Z 0000000140027720     libucrt:argv_parsing.obj
 0004:0000072c       $pdata$_register_onexit_function 000000014002772c     libucrt:onexit.obj
 0004:00000738       $pdata$_execute_onexit_table 0000000140027738     libucrt:onexit.obj
 0004:00000744       $pdata$??R<lambda_22ebabd17bc4fa466a2aca6d8deb888d>@@QEBA@XZ 0000000140027744     libucrt:onexit.obj
 0004:00000750       $pdata$??R<lambda_f03950bc5685219e0bcd2087efbe011e>@@QEBA@XZ 0000000140027750     libucrt:onexit.obj
 0004:0000075c       $pdata$??$?RV<lambda_638799b9deba96c50f710eeac98168cd>@@AEAV<lambda_22ebabd17bc4fa466a2aca6d8deb888d>@@V<lambda_a6f7d7db0129f75315ebf26d50c089f1>@@@?$__crt_seh_guarded_call@H@@QEAAH$$QEAV<lambda_638799b9deba96c50f710eeac98168cd>@@AEAV<lambda_22ebabd17bc4fa466a2aca6d8deb888d>@@$$QEAV<lambda_a6f7d7db0129f75315ebf26d50c089f1>@@@Z 000000014002775c     libucrt:onexit.obj
 0004:00000768       $pdata$??$?RV<lambda_7777bce6b2f8c936911f934f8298dc43>@@AEAV<lambda_f03950bc5685219e0bcd2087efbe011e>@@V<lambda_3883c3dff614d5e0c5f61bb1ac94921c>@@@?$__crt_seh_guarded_call@H@@QEAAH$$QEAV<lambda_7777bce6b2f8c936911f934f8298dc43>@@AEAV<lambda_f03950bc5685219e0bcd2087efbe011e>@@$$QEAV<lambda_3883c3dff614d5e0c5f61bb1ac94921c>@@@Z 0000000140027768     libucrt:onexit.obj
 0004:00000774       $pdata$_get_initial_narrow_environment 0000000140027774     libucrt:environment_initialization.obj
 0004:00000780       $pdata$__dcrt_get_or_create_narrow_environment_nolock 0000000140027780     libucrt:environment_initialization.obj
 0004:0000078c       $pdata$__dcrt_uninitialize_environments_nolock 000000014002778c     libucrt:environment_initialization.obj
 0004:00000798       $pdata$??$common_initialize_environment_nolock@D@@YAHXZ 0000000140027798     libucrt:environment_initialization.obj
 0004:000007a4       $pdata$??$uninitialize_environment_internal@D@@YAXAEAPEAPEAD@Z 00000001400277a4     libucrt:environment_initialization.obj
 0004:000007b0       $pdata$??$uninitialize_environment_internal@_W@@YAXAEAPEAPEA_W@Z 00000001400277b0     libucrt:environment_initialization.obj
 0004:000007bc       $pdata$??$free_environment@D@@YAXQEAPEAD@Z 00000001400277bc     libucrt:environment_initialization.obj
 0004:000007bc       $pdata$??$free_environment@_W@@YAXQEAPEA_W@Z 00000001400277bc     libucrt:environment_initialization.obj
 0004:000007c8       $pdata$??$create_environment@D@@YAQEAPEADQEAD@Z 00000001400277c8     libucrt:environment_initialization.obj
 0004:000007d4       $pdata$??$initialize_environment_by_cloning_nolock@D@@YAHXZ 00000001400277d4     libucrt:environment_initialization.obj
 0004:000007e0       $pdata$_initterm           00000001400277e0     libucrt:initterm.obj
 0004:000007ec       $pdata$_initterm_e         00000001400277ec     libucrt:initterm.obj
 0004:000007f8       $pdata$_seh_filter_exe     00000001400277f8     libucrt:exception_filter.obj
 0004:00000804       $pdata$_set_fmode          0000000140027804     libucrt:setmode.obj
 0004:00000810       $pdata$_set_new_mode       0000000140027810     libucrt:new_mode.obj
 0004:0000081c       $pdata$abort               000000014002781c     libucrt:abort.obj
 0004:00000834       $pdata$strcpy_s            0000000140027834     libucrt:strcpy_s.obj
 0004:00000858       $pdata$terminate           0000000140027858     libucrt:terminate.obj
 0004:00000864       $pdata$__acrt_initialize_winapi_thunks 0000000140027864     libucrt:winapi_thunks.obj
 0004:00000870       $pdata$__acrt_uninitialize_winapi_thunks 0000000140027870     libucrt:winapi_thunks.obj
 0004:0000087c       $pdata$__acrt_AreFileApisANSI 000000014002787c     libucrt:winapi_thunks.obj
 0004:00000888       $pdata$__acrt_CompareStringEx 0000000140027888     libucrt:winapi_thunks.obj
 0004:00000894       $pdata$__acrt_LCMapStringEx 0000000140027894     libucrt:winapi_thunks.obj
 0004:000008a0       $pdata$__acrt_LocaleNameToLCID 00000001400278a0     libucrt:winapi_thunks.obj
 0004:000008ac       $pdata$__acrt_AppPolicyGetProcessTerminationMethodInternal 00000001400278ac     libucrt:winapi_thunks.obj
 0004:000008b8       $pdata$__acrt_tls2_supported 00000001400278b8     libucrt:winapi_thunks.obj
 0004:000008c4       $pdata$?try_get_function_slow@@YAPEAXW4function_id@?A0x391cf84c@@QEBDQEBW4module_id@2@2@Z 00000001400278c4     libucrt:winapi_thunks.obj
 0004:000008d0       $pdata$__acrt_initialize_locks 00000001400278d0     libucrt:locks.obj
 0004:000008dc       $pdata$__acrt_uninitialize_locks 00000001400278dc     libucrt:locks.obj
 0004:000008e8       $pdata$__acrt_initialize_heap 00000001400278e8     libucrt:heap_handle.obj
 0004:000008f4       $pdata$__acrt_initialize_ptd 00000001400278f4     libucrt:per_thread_data.obj
 0004:00000900       $pdata$__acrt_uninitialize_ptd 0000000140027900     libucrt:per_thread_data.obj
 0004:0000090c       $pdata$__acrt_getptd       000000014002790c     libucrt:per_thread_data.obj
 0004:00000918       $pdata$__acrt_getptd_head  0000000140027918     libucrt:per_thread_data.obj
 0004:00000924       $pdata$__acrt_getptd_noexit 0000000140027924     libucrt:per_thread_data.obj
 0004:00000930       $pdata$__acrt_getptd_noexit_explicit 0000000140027930     libucrt:per_thread_data.obj
 0004:0000093c       $pdata$?destroy_fls@@YAXPEAX@Z 000000014002793c     libucrt:per_thread_data.obj
 0004:00000948       $pdata$?replace_current_thread_locale_nolock@@YAXQEAU__acrt_ptd@@QEAU__crt_locale_data@@@Z 0000000140027948     libucrt:per_thread_data.obj
 0004:00000954       $pdata$?construct_ptd_array@@YAXQEAU__acrt_ptd@@@Z 0000000140027954     libucrt:per_thread_data.obj
 0004:00000960       $pdata$?destroy_ptd_array@@YAXQEAU__acrt_ptd@@@Z 0000000140027960     libucrt:per_thread_data.obj
 0004:0000096c       $pdata$?internal_get_ptd_head_slow@@YAPEAU__acrt_ptd@@XZ 000000014002796c     libucrt:per_thread_data.obj
 0004:00000978       $pdata$??$?RV<lambda_0ae27a3a962d80f24befdcbee591983d>@@AEAV<lambda_8d0ee55de4b1038c4002e0adecdf1839>@@V<lambda_dc504788e8f1664fe9b84e20bfb512f2>@@@?$__crt_seh_guarded_call@X@@QEAAX$$QEAV<lambda_0ae27a3a962d80f24befdcbee591983d>@@AEAV<lambda_8d0ee55de4b1038c4002e0adecdf1839>@@$$QEAV<lambda_dc504788e8f1664fe9b84e20bfb512f2>@@@Z 0000000140027978     libucrt:per_thread_data.obj
 0004:00000984       $pdata$??$?RV<lambda_aa87e3671a710a21b5dc78c0bdf72e11>@@AEAV<lambda_92619d2358a28f41a33ba319515a20b9>@@V<lambda_6992ecaafeb10aed2b74cb1fae11a551>@@@?$__crt_seh_guarded_call@X@@QEAAX$$QEAV<lambda_aa87e3671a710a21b5dc78c0bdf72e11>@@AEAV<lambda_92619d2358a28f41a33ba319515a20b9>@@$$QEAV<lambda_6992ecaafeb10aed2b74cb1fae11a551>@@@Z 0000000140027984     libucrt:per_thread_data.obj
 0004:00000990       $pdata$??$?RV<lambda_f2e299630e499de9f9a165e60fcd3db5>@@AEAV<lambda_2ae9d31cdba2644fcbeaf08da7c24588>@@V<lambda_40d01ff24d0e7b3814fdbdcee8eab3c7>@@@?$__crt_seh_guarded_call@X@@QEAAX$$QEAV<lambda_f2e299630e499de9f9a165e60fcd3db5>@@AEAV<lambda_2ae9d31cdba2644fcbeaf08da7c24588>@@$$QEAV<lambda_40d01ff24d0e7b3814fdbdcee8eab3c7>@@@Z 0000000140027990     libucrt:per_thread_data.obj
 0004:0000099c       $pdata$??$?RV<lambda_2d41944a1d46af3157314b8a01080d33>@@AEAV<lambda_8f455de75cd7d7f24b4096f044d8b9e6>@@V<lambda_aa500f224e6afead328df44964fe2772>@@@?$__crt_seh_guarded_call@X@@QEAAX$$QEAV<lambda_2d41944a1d46af3157314b8a01080d33>@@AEAV<lambda_8f455de75cd7d7f24b4096f044d8b9e6>@@$$QEAV<lambda_aa500f224e6afead328df44964fe2772>@@@Z 000000014002799c     libucrt:per_thread_data.obj
 0004:000009a8       $pdata$__acrt_initialize_lowio 00000001400279a8     libucrt:ioinit.obj
 0004:000009b4       $pdata$__acrt_initialize_lowio$fin$0 00000001400279b4     libucrt:ioinit.obj
 0004:000009b4       $pdata$__acrt_lowio_ensure_fh_exists$fin$0 00000001400279b4     libucrt:osfinfo.obj
 0004:000009c0       $pdata$__acrt_uninitialize_lowio 00000001400279c0     libucrt:ioinit.obj
 0004:000009cc       $pdata$?initialize_inherited_file_handles_nolock@@YAXXZ 00000001400279cc     libucrt:ioinit.obj
 0004:000009d8       $pdata$?initialize_stdio_handles_nolock@@YAXXZ 00000001400279d8     libucrt:ioinit.obj
 0004:000009e4       $pdata$__acrt_update_thread_multibyte_data 00000001400279e4     libucrt:mbctype.obj
 0004:000009f0       $pdata$__acrt_initialize_multibyte 00000001400279f0     libucrt:mbctype.obj
 0004:000009fc       $pdata$??0_LocaleUpdate@@QEAA@QEAU__crt_locale_pointers@@@Z 00000001400279fc     libucrt:mbctype.obj
 0004:00000a08       $pdata$_setmbcp_nolock     0000000140027a08     libucrt:mbctype.obj
 0004:00000a14       $pdata$?getSystemCP@@YAHH@Z 0000000140027a14     libucrt:mbctype.obj
 0004:00000a20       $pdata$?setSBCS@@YAXPEAU__crt_multibyte_data@@@Z 0000000140027a20     libucrt:mbctype.obj
 0004:00000a2c       $pdata$?update_thread_multibyte_data_internal@@YAPEAU__crt_multibyte_data@@QEAU__acrt_ptd@@QEAPEAU1@@Z 0000000140027a2c     libucrt:mbctype.obj
 0004:00000a38       $pdata$?fin$0@?0??update_thread_multibyte_data_internal@@YAPEAU__crt_multibyte_data@@QEAU__acrt_ptd@@QEAPEAU1@@Z@4HA 0000000140027a38     libucrt:mbctype.obj
 0004:00000a44       $pdata$?setmbcp_internal@@YAHH_NQEAU__acrt_ptd@@QEAPEAU__crt_multibyte_data@@@Z 0000000140027a44     libucrt:mbctype.obj
 0004:00000a50       $pdata$?setSBUpLow@@YAXPEAU__crt_multibyte_data@@@Z 0000000140027a50     libucrt:mbctype.obj
 0004:00000a5c       $pdata$??$?RV<lambda_efdfa57d1f175319df784efa44bb7b81>@@AEAV<lambda_5f0a4c1567f8adc6734073e5d1e1b35c>@@V<lambda_2e8a7d3640ea6ccb4c2413664c2db6fd>@@@?$__crt_seh_guarded_call@X@@QEAAX$$QEAV<lambda_efdfa57d1f175319df784efa44bb7b81>@@AEAV<lambda_5f0a4c1567f8adc6734073e5d1e1b35c>@@$$QEAV<lambda_2e8a7d3640ea6ccb4c2413664c2db6fd>@@@Z 0000000140027a5c     libucrt:mbctype.obj
 0004:00000a68       $pdata$?fin$0@?0???$?RV<lambda_efdfa57d1f175319df784efa44bb7b81>@@AEAV<lambda_5f0a4c1567f8adc6734073e5d1e1b35c>@@V<lambda_2e8a7d3640ea6ccb4c2413664c2db6fd>@@@?$__crt_seh_guarded_call@X@@QEAAX$$QEAV<lambda_efdfa57d1f175319df784efa44bb7b81>@@AEAV<lambda_5f0a4c1567f8adc6734073e5d1e1b35c>@@$$QEAV<lambda_2e8a7d3640ea6ccb4c2413664c2db6fd>@@@Z@4HA 0000000140027a68     libucrt:mbctype.obj
 0004:00000a74       $pdata$_free_base          0000000140027a74     libucrt:free_base.obj
 0004:00000a80       $pdata$__acrt_execute_initializers 0000000140027a80     libucrt:shared_initialization.obj
 0004:00000a8c       $pdata$__acrt_execute_uninitializers 0000000140027a8c     libucrt:shared_initialization.obj
 0004:00000a98       $pdata$_invalid_parameter_noinfo 0000000140027a98     libucrt:invalid_parameter.obj
 0004:00000aa4       $pdata$_invoke_watson      0000000140027aa4     libucrt:invalid_parameter.obj
 0004:00000ab0       $pdata$__acrt_call_reportfault 0000000140027ab0     libucrt:invalid_parameter.obj
 0004:00000abc       $pdata$_invalid_parameter_internal 0000000140027abc     libucrt:invalid_parameter.obj
 0004:00000ac8       $pdata$?get_raw_ptd_noexit@__crt_cached_ptd_host@@QEAAPEAU__acrt_ptd@@XZ 0000000140027ac8     libucrt:invalid_parameter.obj
 0004:00000ad4       $pdata$?value@?$dual_state_global@P6AXPEB_W00I_K@Z@__crt_state_management@@QEAAAEAP6AXPEB_W00I_K@ZAEAV__crt_cached_ptd_host@@@Z 0000000140027ad4     libucrt:invalid_parameter.obj
 0004:00000ae0       $pdata$_invalid_parameter  0000000140027ae0     libucrt:invalid_parameter.obj
 0004:00000aec       $pdata$__acrt_get_sigabrt_handler 0000000140027aec     libucrt:signal.obj
 0004:00000af8       $pdata$raise               0000000140027af8     libucrt:signal.obj
 0004:00000b04       $pdata$raise$fin$0         0000000140027b04     libucrt:signal.obj
 0004:00000b10       $pdata$??$?RV<lambda_450d765d439847d4c735a33c368b5fc0>@@AEAV<lambda_44731a7d0e6d81c3e6aa82d741081786>@@V<lambda_601a2a7da3b7a96e9554ac7215c4b07c>@@@?$__crt_seh_guarded_call@P6AXH@Z@@QEAAP6AXH@Z$$QEAV<lambda_450d765d439847d4c735a33c368b5fc0>@@AEAV<lambda_44731a7d0e6d81c3e6aa82d741081786>@@$$QEAV<lambda_601a2a7da3b7a96e9554ac7215c4b07c>@@@Z 0000000140027b10     libucrt:signal.obj
 0004:00000b1c       $pdata$_fflush_nolock      0000000140027b1c     libucrt:fflush.obj
 0004:00000b28       $pdata$__acrt_stdio_flush_nolock 0000000140027b28     libucrt:fflush.obj
 0004:00000b34       $pdata$?common_flush_all@@YAH_N@Z 0000000140027b34     libucrt:fflush.obj
 0004:00000b40       $pdata$??$?RV<lambda_842d9ff0dc9ef11c61343bbaebe7f885>@@AEAV<lambda_c5860995281e5c4ce005b3de8f5874ee>@@V<lambda_d90129c13df834fdcbf8d2b88dafcf2d>@@@?$__crt_seh_guarded_call@X@@QEAAX$$QEAV<lambda_842d9ff0dc9ef11c61343bbaebe7f885>@@AEAV<lambda_c5860995281e5c4ce005b3de8f5874ee>@@$$QEAV<lambda_d90129c13df834fdcbf8d2b88dafcf2d>@@@Z 0000000140027b40     libucrt:fflush.obj
 0004:00000b4c       $pdata$?fin$0@?0???$?RV<lambda_842d9ff0dc9ef11c61343bbaebe7f885>@@AEAV<lambda_c5860995281e5c4ce005b3de8f5874ee>@@V<lambda_d90129c13df834fdcbf8d2b88dafcf2d>@@@?$__crt_seh_guarded_call@X@@QEAAX$$QEAV<lambda_842d9ff0dc9ef11c61343bbaebe7f885>@@AEAV<lambda_c5860995281e5c4ce005b3de8f5874ee>@@$$QEAV<lambda_d90129c13df834fdcbf8d2b88dafcf2d>@@@Z@4HA 0000000140027b4c     libucrt:fflush.obj
 0004:00000b58       $pdata$??$?RV<lambda_886d6c58226a84441f68b9f2b8217b83>@@AEAV<lambda_ab61a845afdef5b7c387490eaf3616ee>@@V<lambda_f7f22ab5edc0698d5f6905b0d3f44752>@@@?$__crt_seh_guarded_call@X@@QEAAX$$QEAV<lambda_886d6c58226a84441f68b9f2b8217b83>@@AEAV<lambda_ab61a845afdef5b7c387490eaf3616ee>@@$$QEAV<lambda_f7f22ab5edc0698d5f6905b0d3f44752>@@@Z 0000000140027b58     libucrt:fflush.obj
 0004:00000b64       $pdata$?fin$0@?0???$?RV<lambda_886d6c58226a84441f68b9f2b8217b83>@@AEAV<lambda_ab61a845afdef5b7c387490eaf3616ee>@@V<lambda_f7f22ab5edc0698d5f6905b0d3f44752>@@@?$__crt_seh_guarded_call@X@@QEAAX$$QEAV<lambda_886d6c58226a84441f68b9f2b8217b83>@@AEAV<lambda_ab61a845afdef5b7c387490eaf3616ee>@@$$QEAV<lambda_f7f22ab5edc0698d5f6905b0d3f44752>@@@Z@4HA 0000000140027b64     libucrt:fflush.obj
 0004:00000b70       $pdata$_errno              0000000140027b70     libucrt:errno.obj
 0004:00000b7c       $pdata$__doserrno          0000000140027b7c     libucrt:errno.obj
 0004:00000b88       $pdata$__acrt_errno_map_os_error 0000000140027b88     libucrt:errno.obj
 0004:00000b94       $pdata$__acrt_errno_from_os_error 0000000140027b94     libucrt:errno.obj
 0004:00000ba0       $pdata$__acrt_errno_map_os_error_ptd 0000000140027ba0     libucrt:errno.obj
 0004:00000bac       $pdata$_calloc_base        0000000140027bac     libucrt:calloc_base.obj
 0004:00000bb8       $pdata$_fcloseall          0000000140027bb8     libucrt:closeall.obj
 0004:00000bc4       $pdata$_fcloseall$fin$0    0000000140027bc4     libucrt:closeall.obj
 0004:00000bd0       $pdata$__acrt_stdio_free_buffer_nolock 0000000140027bd0     libucrt:_freebuf.obj
 0004:00000be8       $pdata$_malloc_base        0000000140027be8     libucrt:malloc_base.obj
 0004:00000bf4       $pdata$__acrt_update_locale_info 0000000140027bf4     libucrt:locale_update.obj
 0004:00000c00       $pdata$__acrt_update_multibyte_info 0000000140027c00     libucrt:locale_update.obj
 0004:00000c0c       $pdata$__acrt_update_locale_info_explicit 0000000140027c0c     libucrt:locale_update.obj
 0004:00000c18       $pdata$__acrt_update_multibyte_info_explicit 0000000140027c18     libucrt:locale_update.obj
 0004:00000c24       $pdata$_mbtowc_internal    0000000140027c24     libucrt:mbtowc.obj
 0004:00000c30       $pdata$?__mbrtoc32_utf8@__crt_mbstring@@YA_KPEA_UPEBD_KPEAU_Mbstatet@@AEAV__crt_cached_ptd_host@@@Z 0000000140027c30     libucrt:mbrtoc32.obj
 0004:00000c3c       $pdata$?__mbrtowc_utf8@__crt_mbstring@@YA_KPEA_WPEBD_KPEAU_Mbstatet@@AEAV__crt_cached_ptd_host@@@Z 0000000140027c3c     libucrt:mbrtowc.obj
 0004:00000c48       $pdata$?__mbsrtowcs_utf8@__crt_mbstring@@YA_KPEA_WPEAPEBD_KPEAU_Mbstatet@@AEAV__crt_cached_ptd_host@@@Z 0000000140027c48     libucrt:mbrtowc.obj
 0004:00000c54       $pdata$_fileno             0000000140027c54     libucrt:fileno.obj
 0004:00000c60       $pdata$__GSHandlerCheck_EH 0000000140027c60     libcmt:gshandlereh.obj
 0004:00000c6c       $pdata$__acrt_get_process_end_policy 0000000140027c6c     libucrt:win_policies.obj
 0004:00000c78       $pdata$__acrt_locale_free_monetary 0000000140027c78     libucrt:initmon.obj
 0004:00000c84       $pdata$__acrt_locale_free_numeric 0000000140027c84     libucrt:initnum.obj
 0004:00000c90       $pdata$__acrt_locale_free_time 0000000140027c90     libucrt:inittime.obj
 0004:00000c9c       $pdata$?free_crt_array_internal@@YAXQEAPEBX_K@Z 0000000140027c9c     libucrt:inittime.obj
 0004:00000ca8       $pdata$__acrt_GetStringTypeA 0000000140027ca8     libucrt:getstringtypea.obj
 0004:00000cb4       $pdata$__acrt_release_locale_ref 0000000140027cb4     libucrt:locale_refcounting.obj
 0004:00000cc0       $pdata$__acrt_free_locale  0000000140027cc0     libucrt:locale_refcounting.obj
 0004:00000ccc       $pdata$__acrt_locale_free_lc_time_if_unreferenced 0000000140027ccc     libucrt:locale_refcounting.obj
 0004:00000cd8       $pdata$__acrt_update_thread_locale_data 0000000140027cd8     libucrt:locale_refcounting.obj
 0004:00000ce4       $pdata$__acrt_update_thread_locale_data$fin$0 0000000140027ce4     libucrt:locale_refcounting.obj
 0004:00000cf0       $pdata$_updatetlocinfoEx_nolock 0000000140027cf0     libucrt:locale_refcounting.obj
 0004:00000cfc       $pdata$??$common_expand_argv_wildcards@D@@YAHQEAPEADQEAPEAPEAD@Z 0000000140027cfc     libucrt:argv_wildcards.obj
 0004:00000d08       $pdata$??$__acrt_convert_wcs_mbs_cp@D_WV<lambda_7c9dea7b4ca7285d2cdb541a38da6275>@@U__crt_win32_buffer_internal_dynamic_resizing@@@@YAHQEBDAEAV?$__crt_win32_buffer@_WU__crt_win32_buffer_internal_dynamic_resizing@@@@AEBV<lambda_7c9dea7b4ca7285d2cdb541a38da6275>@@I@Z 0000000140027d08     libucrt:argv_wildcards.obj
 0004:00000d14       $pdata$??$__acrt_convert_wcs_mbs_cp@_WDV<lambda_d8593a27d1aa8c02be35c86a17d324c4>@@U__crt_win32_buffer_internal_dynamic_resizing@@@@YAHQEB_WAEAV?$__crt_win32_buffer@DU__crt_win32_buffer_internal_dynamic_resizing@@@@AEBV<lambda_d8593a27d1aa8c02be35c86a17d324c4>@@I@Z 0000000140027d14     libucrt:argv_wildcards.obj
 0004:00000d20       $pdata$??$copy_and_add_argument_to_buffer@D@@YAHQEBD0_KAEAV?$argument_list@D@?A0x5f5c8891@@@Z 0000000140027d20     libucrt:argv_wildcards.obj
 0004:00000d2c       $pdata$??$expand_argument_wildcards@D@@YAHQEAD0AEAV?$argument_list@D@?A0x5f5c8891@@@Z 0000000140027d2c     libucrt:argv_wildcards.obj
 0004:00000d38       $pdata$__acrt_GetModuleFileNameA 0000000140027d38     libucrt:getmodulefilenamea.obj
 0004:00000d44       $pdata$??$__acrt_convert_wcs_mbs_cp@_WDV<lambda_f788ae46380686e8b737efdd8c720d07>@@U__crt_win32_buffer_no_resizing@@@@YAHQEB_WAEAV?$__crt_win32_buffer@DU__crt_win32_buffer_no_resizing@@@@AEBV<lambda_f788ae46380686e8b737efdd8c720d07>@@I@Z 0000000140027d44     libucrt:getmodulefilenamea.obj
 0004:00000d50       $pdata$?x_ismbbtype_l@@YAHPEAU__crt_locale_pointers@@IHH@Z 0000000140027d50     libucrt:ismbbyte.obj
 0004:00000d5c       $pdata$_recalloc_base      0000000140027d5c     libucrt:recalloc.obj
 0004:00000d68       $pdata$__acrt_WideCharToMultiByte 0000000140027d68     libucrt:widechartomultibyte.obj
 0004:00000d74       $pdata$__dcrt_get_narrow_environment_from_os 0000000140027d74     libucrt:get_environment_from_os.obj
 0004:00000d80       $pdata$??$common_set_variable_in_environment_nolock@D@@YAHQEADH@Z 0000000140027d80     libucrt:setenv.obj
 0004:00000d8c       $pdata$??$copy_environment@D@@YAPEAPEADQEAPEAD@Z 0000000140027d8c     libucrt:setenv.obj
 0004:00000d98       $pdata$_get_osfhandle      0000000140027d98     libucrt:osfinfo.obj
 0004:00000da4       $pdata$_free_osfhnd        0000000140027da4     libucrt:osfinfo.obj
 0004:00000db0       $pdata$__acrt_lowio_create_handle_array 0000000140027db0     libucrt:osfinfo.obj
 0004:00000dbc       $pdata$__acrt_lowio_destroy_handle_array 0000000140027dbc     libucrt:osfinfo.obj
 0004:00000dc8       $pdata$__acrt_lowio_ensure_fh_exists 0000000140027dc8     libucrt:osfinfo.obj
 0004:00000dd4       $pdata$_realloc_base       0000000140027dd4     libucrt:realloc_base.obj
 0004:00000de0       $pdata$__C_specific_handler_noexcept 0000000140027de0     libvcruntime:chandler_noexcept.obj
 0004:00000dec       $pdata$__acrt_DownlevelLocaleNameToLCID 0000000140027dec     libucrt:lcidtoname_downlevel.obj
 0004:00000df8       $pdata$__acrt_LCMapStringA 0000000140027df8     libucrt:lcmapstringa.obj
 0004:00000e04       $pdata$?__acrt_LCMapStringA_stat@@YAHPEAU__crt_locale_pointers@@PEB_WKPEBDHPEADHHH@Z 0000000140027e04     libucrt:lcmapstringa.obj
 0004:00000e10       $pdata$?initialize_multibyte@@YAHXZ 0000000140027e10     libucrt:multibyte_initializer.obj
 0004:00000e1c       $pdata$_commit             0000000140027e1c     libucrt:commit.obj
 0004:00000e28       $pdata$??$?RV<lambda_a37b2b86f63e897a80ea819b0eb08c01>@@AEAV<lambda_38ce7e780aa69e748d6df282ebc68efe>@@V<lambda_99fb1378e971ab6e7edea83e3a7a83a2>@@@?$__crt_seh_guarded_call@H@@QEAAH$$QEAV<lambda_a37b2b86f63e897a80ea819b0eb08c01>@@AEAV<lambda_38ce7e780aa69e748d6df282ebc68efe>@@$$QEAV<lambda_99fb1378e971ab6e7edea83e3a7a83a2>@@@Z 0000000140027e28     libucrt:commit.obj
 0004:00000e34       $pdata$?fin$0@?0???$?RV<lambda_a37b2b86f63e897a80ea819b0eb08c01>@@AEAV<lambda_38ce7e780aa69e748d6df282ebc68efe>@@V<lambda_99fb1378e971ab6e7edea83e3a7a83a2>@@@?$__crt_seh_guarded_call@H@@QEAAH$$QEAV<lambda_a37b2b86f63e897a80ea819b0eb08c01>@@AEAV<lambda_38ce7e780aa69e748d6df282ebc68efe>@@$$QEAV<lambda_99fb1378e971ab6e7edea83e3a7a83a2>@@@Z@4HA 0000000140027e34     libucrt:commit.obj
 0004:00000e34       $pdata$?fin$0@?0???$?RV<lambda_ad8af0d99a0adf03d037d7dffe354bb5>@@AEAV<lambda_c9ba49e555ba839a7b07aa3fbecb7617>@@V<lambda_2f1ebd5d68526518146ae959c9e734c8>@@@?$__crt_seh_guarded_call@H@@QEAAH$$QEAV<lambda_ad8af0d99a0adf03d037d7dffe354bb5>@@AEAV<lambda_c9ba49e555ba839a7b07aa3fbecb7617>@@$$QEAV<lambda_2f1ebd5d68526518146ae959c9e734c8>@@@Z@4HA 0000000140027e34     libucrt:close.obj
 0004:00000e40       $pdata$_write_nolock       0000000140027e40     libucrt:write.obj
 0004:00000e4c       $pdata$_write_internal     0000000140027e4c     libucrt:write.obj
 0004:00000e58       $pdata$_write_internal$fin$0 0000000140027e58     libucrt:write.obj
 0004:00000e64       $pdata$?write_double_translated_ansi_nolock@@YA?AUwrite_result@?A0x17268360@@HQEBDIAEAV__crt_cached_ptd_host@@@Z 0000000140027e64     libucrt:write.obj
 0004:00000e70       $pdata$?write_text_ansi_nolock@@YA?AUwrite_result@?A0x17268360@@HQEBDI@Z 0000000140027e70     libucrt:write.obj
 0004:00000e7c       $pdata$?write_text_utf16le_nolock@@YA?AUwrite_result@?A0x17268360@@HQEBDI@Z 0000000140027e7c     libucrt:write.obj
 0004:00000e88       $pdata$?write_text_utf8_nolock@@YA?AUwrite_result@?A0x17268360@@HQEBDI@Z 0000000140027e88     libucrt:write.obj
 0004:00000e94       $pdata$_isatty             0000000140027e94     libucrt:isatty.obj
 0004:00000ea0       $pdata$fclose              0000000140027ea0     libucrt:fclose.obj
 0004:00000eac       $pdata$?_fclose_nolock_internal@@YAHQEAU_iobuf@@AEAV__crt_cached_ptd_host@@@Z 0000000140027eac     libucrt:fclose.obj
 0004:00000eb8       $pdata$?_fclose_internal@@YAHQEAU_iobuf@@AEAV__crt_cached_ptd_host@@@Z 0000000140027eb8     libucrt:fclose.obj
 0004:00000ec4       $pdata$?fin$0@?0??_fclose_internal@@YAHQEAU_iobuf@@AEAV__crt_cached_ptd_host@@@Z@4HA 0000000140027ec4     libucrt:fclose.obj
 0004:00000edc       $pdata$qsort               0000000140027edc     libucrt:qsort.obj
 0004:00000ee8       $pdata$3$qsort             0000000140027ee8     libucrt:qsort.obj
 0004:00000ef4       $pdata$4$qsort             0000000140027ef4     libucrt:qsort.obj
 0004:00000f00       $pdata$strncpy_s           0000000140027f00     libucrt:strncpy_s.obj
 0004:00000f0c       $pdata$strpbrk             0000000140027f0c     libucrt:strpbrk.obj
 0004:00000f18       $pdata$fallbackMethod      0000000140027f18     libucrt:strpbrk.obj
 0004:00000f24       $pdata$_mbsdec_l           0000000140027f24     libucrt:mbsdec.obj
 0004:00000f30       $pdata$_msize_base         0000000140027f30     libucrt:msize.obj
 0004:00000f3c       $pdata$_strnicoll          0000000140027f3c     libucrt:strnicol.obj
 0004:00000f48       $pdata$0$_strnicoll        0000000140027f48     libucrt:strnicol.obj
 0004:00000f54       $pdata$1$_strnicoll        0000000140027f54     libucrt:strnicol.obj
 0004:00000f60       $pdata$__acrt_SetEnvironmentVariableA 0000000140027f60     libucrt:setenvironmentvariablea.obj
 0004:00000f6c       $pdata$??$common_lseek_nolock@_J@@YA_JH_JHAEAV__crt_cached_ptd_host@@@Z 0000000140027f6c     libucrt:lseek.obj
 0004:00000f78       $pdata$_putwch_nolock      0000000140027f78     libucrt:putwch.obj
 0004:00000f84       $pdata$_close_nolock_internal 0000000140027f84     libucrt:close.obj
 0004:00000f90       $pdata$_close_internal     0000000140027f90     libucrt:close.obj
 0004:00000f9c       $pdata$??$?RV<lambda_ad8af0d99a0adf03d037d7dffe354bb5>@@AEAV<lambda_c9ba49e555ba839a7b07aa3fbecb7617>@@V<lambda_2f1ebd5d68526518146ae959c9e734c8>@@@?$__crt_seh_guarded_call@H@@QEAAH$$QEAV<lambda_ad8af0d99a0adf03d037d7dffe354bb5>@@AEAV<lambda_c9ba49e555ba839a7b07aa3fbecb7617>@@$$QEAV<lambda_2f1ebd5d68526518146ae959c9e734c8>@@@Z 0000000140027f9c     libucrt:close.obj
 0004:00000fa8       $pdata$_strnicmp           0000000140027fa8     libucrt:strnicmp.obj
 0004:00000fb4       $pdata$_strnicmp_l         0000000140027fb4     libucrt:strnicmp.obj
 0004:00000fc0       $pdata$?_strnicmp_validate_param@@YAHQEBD0_K@Z 0000000140027fc0     libucrt:strnicmp.obj
 0004:00000fcc       $pdata$__acrt_CompareStringA 0000000140027fcc     libucrt:comparestringa.obj
 0004:00000fd8       $pdata$?InternalCompareStringA@@YAHPEAU__crt_locale_pointers@@PEB_WKPEBDH2HH@Z 0000000140027fd8     libucrt:comparestringa.obj
 0004:00000fe4       $pdata$__dcrt_lowio_ensure_console_output_initialized 0000000140027fe4     libucrt:initcon.obj
 0004:00000ff0       $pdata$__dcrt_write_console 0000000140027ff0     libucrt:initcon.obj
 0004:00000ffc       $pdata$__dcrt_terminate_console_output 0000000140027ffc     libucrt:initcon.obj
 0004:00001008       $pdata$__acrt_initialize_fma3 0000000140028008     libucrt:fma3_available.obj
 0005:00000000       ?function_pointers@@3PAPEAXA 0000000140029000     libucrt:winapi_thunks.obj
 0006:00000008       ?current_arena@@3PEAUArenaBlock@@EA 000000014002a008     aurora_runtime:memory.obj
 0007:00000000       MoveSmall                  000000014002b000     libvcruntime:memcpy_avx_ermsb_aligned.obj
 0007:00000040       MoveSmallYmm               000000014002b040     libvcruntime:memcpy_avx_ermsb_aligned.obj
 0007:00000064       MoveSmallYmmNT             000000014002b064     libvcruntime:memcpy_avx_ermsb_aligned.obj
 0007:00000090       MoveSmall                  000000014002b090     libvcruntime:memcpy_avx_ermsb_aligned_amd.obj
 0007:000000d0       MoveSmallYmm               000000014002b0d0     libvcruntime:memcpy_avx_ermsb_aligned_amd.obj
 0007:000000f4       MoveSmallYmmNT             000000014002b0f4     libvcruntime:memcpy_avx_ermsb_aligned_amd.obj
 0007:00000120       MoveSmall                  000000014002b120     libvcruntime:memcpy_sse2_ermsb_aligned.obj
 0007:00000160       MoveSmallXmm               000000014002b160     libvcruntime:memcpy_sse2_ermsb_aligned.obj
 0007:00000190       MoveSmall                  000000014002b190     libvcruntime:memcpy_sse2_ermsb_aligned_amd.obj
 0007:000001d0       MoveSmallXmm               000000014002b1d0     libvcruntime:memcpy_sse2_ermsb_aligned_amd.obj
